LX51 LINKER/LOCATER V4.66.87.0                                                          03/10/2021  11:45:25  PAGE 1


LX51 LINKER/LOCATER V4.66.87.0, INVOKED BY:
E:\KEIL5 MDK1\C51\BIN\LX51.EXE .\output\main.obj, .\output\uart.obj, .\output\delay.obj, .\output\system_clock.obj, .\ou
>> tput\rgb.obj, .\output\mysystem.obj, .\output\key.obj, .\output\pwm.obj, .\output\myi2c.obj, .\output\oled.obj, .\out
>> put\beep.obj, .\output\sht30.obj, .\output\STARTUP.obj, .\output\mcu_api.obj, .\output\protocol.obj, .\output\system.
>> obj TO .\output\ca51f003 PRINT (.\lst\ca51f003.map) REMOVEUNUSED CLASSES (XDATA (X:0X0-X:0X3FF), HDATA (X:0X0-X:0X3FF
>> ), CODE (C:0X0-C:0X47FF), CONST (C:0X0-C:0X47FF), ECODE (C:0X0-C:0X47FF), HCONST (C:0X0-C:0X47FF))


CPU MODE:     8051 MODE
MEMORY MODEL: LARGE WITH FLOATING POINT ARITHMETIC


INPUT MODULES INCLUDED:
  .\output\main.obj (MAIN)
         COMMENT TYPE 0: C51 V9.57.0.0
  .\output\uart.obj (UART)
         COMMENT TYPE 0: C51 V9.57.0.0
  .\output\delay.obj (DELAY)
         COMMENT TYPE 0: C51 V9.57.0.0
  .\output\system_clock.obj (SYSTEM_CLOCK)
         COMMENT TYPE 0: C51 V9.57.0.0
  .\output\rgb.obj (RGB)
         COMMENT TYPE 0: C51 V9.57.0.0
  .\output\mysystem.obj (MYSYSTEM)
         COMMENT TYPE 0: C51 V9.57.0.0
  .\output\key.obj (KEY)
         COMMENT TYPE 0: C51 V9.57.0.0
  .\output\pwm.obj (PWM)
         COMMENT TYPE 0: C51 V9.57.0.0
  .\output\myi2c.obj (MYI2C)
         COMMENT TYPE 0: C51 V9.57.0.0
  .\output\oled.obj (OLED)
         COMMENT TYPE 0: C51 V9.57.0.0
  .\output\beep.obj (BEEP)
         COMMENT TYPE 0: C51 V9.57.0.0
  .\output\sht30.obj (SHT30)
         COMMENT TYPE 0: C51 V9.57.0.0
  .\output\STARTUP.obj (?C_STARTUP)
         COMMENT TYPE 1: A51 / ASM51 Assembler
  .\output\mcu_api.obj (MCU_API)
         COMMENT TYPE 0: C51 V9.57.0.0
  .\output\protocol.obj (PROTOCOL)
         COMMENT TYPE 0: C51 V9.57.0.0
  .\output\system.obj (SYSTEM)
         COMMENT TYPE 0: C51 V9.57.0.0
  E:\KEIL5 MDK1\C51\LIB\C51FPL.LIB (?C?FPADD)
         COMMENT TYPE 1: A51 / ASM51 Assembler
  E:\KEIL5 MDK1\C51\LIB\C51FPL.LIB (?C?FPMUL)
         COMMENT TYPE 1: A51 / ASM51 Assembler
  E:\KEIL5 MDK1\C51\LIB\C51FPL.LIB (?C?FPDIV)
         COMMENT TYPE 1: A51 / ASM51 Assembler
  E:\KEIL5 MDK1\C51\LIB\C51FPL.LIB (?C?FPCMP)
         COMMENT TYPE 1: A51 / ASM51 Assembler
  E:\KEIL5 MDK1\C51\LIB\C51FPL.LIB (?C?FPNEG)
         COMMENT TYPE 1: A51 / ASM51 Assembler
  E:\KEIL5 MDK1\C51\LIB\C51FPL.LIB (?C?FCAST)
         COMMENT TYPE 1: A51 / ASM51 Assembler
  E:\KEIL5 MDK1\C51\LIB\C51FPL.LIB (?C?CASTF)
         COMMENT TYPE 1: A51 / ASM51 Assembler
  E:\KEIL5 MDK1\C51\LIB\C51FPL.LIB (VSPRINTF)
         COMMENT TYPE 1: A51 / ASM51 Assembler
  E:\KEIL5 MDK1\C51\LIB\C51FPL.LIB (?C?FPGETOPN)
         COMMENT TYPE 1: A51 / ASM51 Assembler
  E:\KEIL5 MDK1\C51\LIB\C51FPL.LIB (PRINTF)
         COMMENT TYPE 1: A51 / ASM51 Assembler
  E:\KEIL5 MDK1\C51\LIB\C51FPL.LIB (?C?FPROUND)
LX51 LINKER/LOCATER V4.66.87.0                                                        03/10/2021  11:45:25  PAGE 2


         COMMENT TYPE 1: A51 / ASM51 Assembler
  E:\KEIL5 MDK1\C51\LIB\C51FPL.LIB (?C?FPCONVERT)
         COMMENT TYPE 1: A51 / ASM51 Assembler
  E:\KEIL5 MDK1\C51\LIB\C51FPL.LIB (?C?FTNPWR)
         COMMENT TYPE 1: A51 / ASM51 Assembler
  E:\KEIL5 MDK1\C51\LIB\C51L.LIB (?C_INIT)
         COMMENT TYPE 1: A51 / ASM51 Assembler
  E:\KEIL5 MDK1\C51\LIB\C51L.LIB (?C?COPY)
         COMMENT TYPE 1: A51 / ASM51 Assembler
  E:\KEIL5 MDK1\C51\LIB\C51L.LIB (?C?CLDPTR)
         COMMENT TYPE 1: A51 / ASM51 Assembler
  E:\KEIL5 MDK1\C51\LIB\C51L.LIB (?C?CLDOPTR)
         COMMENT TYPE 1: A51 / ASM51 Assembler
  E:\KEIL5 MDK1\C51\LIB\C51L.LIB (?C?CSTPTR)
         COMMENT TYPE 1: A51 / ASM51 Assembler
  E:\KEIL5 MDK1\C51\LIB\C51L.LIB (?C?CSTOPTR)
         COMMENT TYPE 1: A51 / ASM51 Assembler
  E:\KEIL5 MDK1\C51\LIB\C51L.LIB (?C?SIDIV)
         COMMENT TYPE 1: A51 / ASM51 Assembler
  E:\KEIL5 MDK1\C51\LIB\C51L.LIB (?C?IILDX)
         COMMENT TYPE 1: A51 / ASM51 Assembler
  E:\KEIL5 MDK1\C51\LIB\C51L.LIB (?C?ILDIX)
         COMMENT TYPE 1: A51 / ASM51 Assembler
  E:\KEIL5 MDK1\C51\LIB\C51L.LIB (?C?ULDIV)
         COMMENT TYPE 1: A51 / ASM51 Assembler
  E:\KEIL5 MDK1\C51\LIB\C51L.LIB (?C?LNEG)
         COMMENT TYPE 1: A51 / ASM51 Assembler
  E:\KEIL5 MDK1\C51\LIB\C51L.LIB (?C?ULCMP)
         COMMENT TYPE 1: A51 / ASM51 Assembler
  E:\KEIL5 MDK1\C51\LIB\C51L.LIB (?C?ULSHR)
         COMMENT TYPE 1: A51 / ASM51 Assembler
  E:\KEIL5 MDK1\C51\LIB\C51L.LIB (?C?LSHL)
         COMMENT TYPE 1: A51 / ASM51 Assembler
  E:\KEIL5 MDK1\C51\LIB\C51L.LIB (?C?LLDCODE)
         COMMENT TYPE 1: A51 / ASM51 Assembler
  E:\KEIL5 MDK1\C51\LIB\C51L.LIB (?C?LSTXDATA)
         COMMENT TYPE 1: A51 / ASM51 Assembler
  E:\KEIL5 MDK1\C51\LIB\C51L.LIB (?C?LSTKXDATA)
         COMMENT TYPE 1: A51 / ASM51 Assembler
  E:\KEIL5 MDK1\C51\LIB\C51L.LIB (?C?PLDIXDATA)
         COMMENT TYPE 1: A51 / ASM51 Assembler
  E:\KEIL5 MDK1\C51\LIB\C51L.LIB (?C?PSTXDATA)
         COMMENT TYPE 1: A51 / ASM51 Assembler
  E:\KEIL5 MDK1\C51\LIB\C51L.LIB (?C?CCASE)
         COMMENT TYPE 1: A51 / ASM51 Assembler
  E:\KEIL5 MDK1\C51\LIB\C51L.LIB (PUTCHAR)
         COMMENT TYPE 1: A51 / ASM51 Assembler
  E:\KEIL5 MDK1\C51\LIB\C51L.LIB (?C?UIDIV)
         COMMENT TYPE 1: A51 / ASM51 Assembler


ACTIVE MEMORY CLASSES OF MODULE:  .\output\ca51f003 (MAIN)

BASE        START       END         USED      MEMORY CLASS
==========================================================
X:000000H   X:000000H   X:0003FFH   0001F9H   XDATA
X:000000H   X:000000H   X:0003FFH             HDATA
C:000000H   C:000000H   C:0047FFH   003284H   CODE
C:000000H   C:000000H   C:0047FFH   000B20H   CONST
C:000000H   C:000000H   C:0047FFH             ECODE
B00:0000H   C:000000H   C:0047FFH             HCONST
I:000020H.0 I:000020H.0 I:00002FH.7 000000H.7 BIT
I:000000H   I:000000H   I:0000FFH   000001H   IDATA
I:000000H   I:000000H   I:00007FH   000008H   DATA

LX51 LINKER/LOCATER V4.66.87.0                                                        03/10/2021  11:45:25  PAGE 3



MEMORY MAP OF MODULE:  .\output\ca51f003 (MAIN)


START     STOP      LENGTH    ALIGN  RELOC    MEMORY CLASS   SEGMENT NAME
=========================================================================

* * * * * * * * * * *   D A T A   M E M O R Y   * * * * * * * * * * * * *
000000H   000007H   000008H   ---    AT..     DATA           "REG BANK 0"
000008H.0 00001FH.7 000018H.0 ---    ---      **GAP**
000020H.0 000020H.3 000000H.4 BIT    UNIT     BIT            ?BI?MYSYSTEM
000020H.4 000020H.5 000000H.2 BIT    UNIT     BIT            ?BI?KEY
000020H.6 000020H.6 000000H.1 BIT    UNIT     BIT            ?BI?UART
000020H.7 000020H   000000H.1 ---    ---      **GAP**
000021H   000021H   000001H   BYTE   UNIT     IDATA          ?STACK

* * * * * * * * * * *   C O D E   M E M O R Y   * * * * * * * * * * * * *
000000H   000002H   000003H   ---    OFFS..   CODE           ?CO??C_STARTUP?0
000003H   000008H   000006H   BYTE   UNIT     CODE           ?PR?MCU_GET_WIFI_WORK_STATE?MCU_API
000009H   000009H   000001H   BYTE   UNIT     CODE           ?PR?MYGPIO_INIT?MYSYSTEM
00000AH   00000AH   000001H   ---    ---      **GAP**
00000BH   00000DH   000003H   BYTE   OFFS..   CODE           ?MYSYSTEM?0000B
00000EH   00001AH   00000DH   BYTE   UNIT     CODE           ?PR?INT2_ISR?KEY
00001BH   00001DH   000003H   BYTE   OFFS..   CODE           ?MYSYSTEM?0001B
00001EH   000032H   000015H   BYTE   UNIT     CODE           ?PR?TIMER0_INIT?MYSYSTEM
000033H   000035H   000003H   BYTE   OFFS..   CODE           ?UART?00033
000036H   00003AH   000005H   BYTE   UNIT     CODE           ?PR?OLED_CLEAR?OLED
00003BH   00003DH   000003H   BYTE   OFFS..   CODE           ?KEY?0003B
00003EH   00004AH   00000DH   BYTE   UNIT     CODE           ?PR?INT4_ISR?KEY
00004BH   00004DH   000003H   BYTE   OFFS..   CODE           ?KEY?0004B
00004EH   0009B3H   000966H   BYTE   UNIT     CODE           ?C?LIB_CODE
0009B4H   000BF8H   000245H   BYTE   UNIT     CODE           ?PR?RGB_LED_BREATHING?RGB
000BF9H   000E34H   00023CH   BYTE   UNIT     CODE           ?PR?_OLED_SHOW_FLOAT_NUMBER?OLED
000E35H   00106CH   000238H   BYTE   UNIT     CODE           ?PR?_OLED_SHOWNUM?OLED
00106DH   001260H   0001F4H   BYTE   UNIT     CODE           ?PR?WIFI_UART_SERVICE?MCU_API
001261H   001425H   0001C5H   BYTE   UNIT     CODE           ?PR?MEASURE_PERIOD_MODE?SHT30
001426H   0015C1H   00019CH   BYTE   UNIT     CODE           ?PR?_DP_DOWNLOAD_HANDLE?PROTOCOL
0015C2H   001728H   000167H   BYTE   UNIT     CODE           ?PR?_MY_MEMCPY?MCU_API
001729H   001881H   000159H   BYTE   UNIT     CODE           ?PR?_DATA_HANDLE?SYSTEM
001882H   0019B9H   000138H   BYTE   UNIT     CODE           ?PR?_BYTE_TO_INT?MCU_API
0019BAH   001AE2H   000129H   BYTE   UNIT     CODE           ?PR?TIMER1_ISR?MYSYSTEM
001AE3H   001BFBH   000119H   BYTE   UNIT     CODE           ?PR?PRODUCT_INFO_UPDATE?SYSTEM
001BFCH   001CEFH   0000F4H   BYTE   UNIT     CODE           ?PR?ALL_DATA_UPDATE?PROTOCOL
001CF0H   001DE1H   0000F2H   BYTE   UNIT     CODE           ?PR?WIFI_WORK_STATE_LED?MYSYSTEM
001DE2H   001ED1H   0000F0H   BYTE   UNIT     CODE           ?PR?_OLED_SHOWCHAR?OLED
001ED2H   001FBDH   0000ECH   BYTE   UNIT     CODE           ?PR?_OLED_TEMP_HUMI_DISPLAY?OLED
001FBEH   002072H   0000B5H   BYTE   UNIT     CODE           ?PR?_UART1_INITIAL?UART
002073H   00211EH   0000ACH   BYTE   UNIT     CODE           ?PR?_UART_RECEIVE_INPUT?MCU_API
00211FH   0021C4H   0000A6H   BYTE   UNIT     CODE           ?PR?UART1_ISR?UART
0021C5H   00226AH   0000A6H   BYTE   UNIT     CODE           ?PR?_MCU_DP_VALUE_UPDATE?MCU_API
00226BH   00230BH   0000A1H   BYTE   UNIT     CODE           ?PR?_SET_LAMP_COLOR?RGB
00230CH   00239FH   000094H   BYTE   UNIT     CODE           ?PR?_OLED_SHOWCN?OLED
0023A0H   002432H   000093H   BYTE   UNIT     CODE           ?PR?_SCAN_GET_MSG?KEY
002433H   0024C0H   00008EH   BYTE   UNIT     CODE           ?C_INITSEG
0024C1H   00254CH   00008CH   BYTE   UNIT     CODE           ?PR?OLED_INIT?OLED
00254DH   0025D8H   00008CH   BYTE   UNIT     CODE           ?C_C51STARTUP
0025D9H   00265EH   000086H   BYTE   UNIT     CODE           ?PR?_DATA_POINT_HANDLE?SYSTEM
00265FH   0026E0H   000082H   BYTE   UNIT     CODE           ?PR?_SET_LAMP_DUTY?RGB
0026E1H   002761H   000081H   BYTE   UNIT     CODE           ?PR?_OLED_SHOWSTR?OLED
002762H   0027D6H   000075H   BYTE   UNIT     CODE           ?PR?_MY_STRLEN?MCU_API
0027D7H   002843H   00006DH   BYTE   UNIT     CODE           ?PR?KEY_SCAN?KEY
002844H   0028AFH   00006CH   BYTE   UNIT     CODE           ?PR?_SET_WIFI_UART_BUFFER?SYSTEM
0028B0H   002918H   000069H   BYTE   UNIT     CODE           ?PR?_UART1_PUTCHAR?UART
002919H   002981H   000069H   BYTE   UNIT     CODE           ?PR?_WIFI_UART_WRITE_FRAME?SYSTEM
002982H   0029E4H   000063H   BYTE   UNIT     CODE           ?PR?TAKE_BYTE_RXBUFF?SYSTEM
LX51 LINKER/LOCATER V4.66.87.0                                                        03/10/2021  11:45:25  PAGE 4


0029E5H   002A46H   000062H   BYTE   UNIT     CODE           ?PR?_CRC_8?SHT30
002A47H   002A9DH   000057H   BYTE   UNIT     CODE           ?PR?TIMER0_ISR?MYSYSTEM
002A9EH   002AF1H   000054H   BYTE   UNIT     CODE           ?PR?_IIC_SEND_BYTE?MYI2C
002AF2H   002B45H   000054H   BYTE   UNIT     CODE           ?PR?_WIFI_UART_WRITE_DATA?SYSTEM
002B46H   002B98H   000053H   BYTE   UNIT     CODE           ?PR?_IIC_READ_BYTE?MYI2C
002B99H   002BE5H   00004DH   BYTE   UNIT     CODE           ?PR?_OLED_FILL?OLED
002BE6H   002C2FH   00004AH   BYTE   UNIT     CODE           ?PR?_GET_CHECK_SUM?SYSTEM
002C30H   002C72H   000043H   BYTE   UNIT     CODE           ?PR?_MCU_DP_BOOL_UPDATE?MCU_API
002C73H   002CAFH   00003DH   BYTE   UNIT     CODE           ?PR?_MCU_DP_ENUM_UPDATE?MCU_API
002CB0H   002CE8H   000039H   BYTE   UNIT     CODE           ?PR?SHT30_INIT?SHT30
002CE9H   002D1EH   000036H   BYTE   UNIT     CODE           ?PR?IIC_WAIT_ACK?MYI2C
002D1FH   002D53H   000035H   BYTE   UNIT     CODE           ?PR?_WRITE_IIC_DATA?OLED
002D54H   002D87H   000034H   BYTE   UNIT     CODE           ?PR?WITH_DATA_RXBUFF?SYSTEM
002D88H   002DB6H   00002FH   BYTE   UNIT     CODE           ?PR?_GET_DOWMLOAD_DPID_INDEX?SYSTEM
002DB7H   002DE3H   00002DH   BYTE   UNIT     CODE           ?PR?_OLED_SETPOS?OLED
002DE4H   002E0FH   00002CH   BYTE   UNIT     CODE           ?PR?_SET_WIFI_UART_BYTE?SYSTEM
002E10H   002E3AH   00002BH   BYTE   UNIT     CODE           ?PR?_DP_DOWNLOAD_TEMP_SAMPLING_HANDLE?PROTOCOL
002E3BH   002E65H   00002BH   BYTE   UNIT     CODE           ?PR?_DP_DOWNLOAD_HUMIDITY_SAMPLING_HANDLE?PROTOCOL
002E66H   002E90H   00002BH   BYTE   UNIT     CODE           ?PR?_DP_DOWNLOAD_MAXTEMP_SET_HANDLE?PROTOCOL
002E91H   002EBBH   00002BH   BYTE   UNIT     CODE           ?PR?_DP_DOWNLOAD_MINITEMP_SET_HANDLE?PROTOCOL
002EBCH   002EE6H   00002BH   BYTE   UNIT     CODE           ?PR?_DP_DOWNLOAD_MAXHUM_SET_HANDLE?PROTOCOL
002EE7H   002F11H   00002BH   BYTE   UNIT     CODE           ?PR?_DP_DOWNLOAD_MINIHUM_SET_HANDLE?PROTOCOL
002F12H   002F3CH   00002BH   BYTE   UNIT     CODE           ?PR?_DP_DOWNLOAD_BRIGHT_VALUE_HANDLE?PROTOCOL
002F3DH   002F67H   00002BH   BYTE   UNIT     CODE           ?PR?_DP_DOWNLOAD_TEMP_PERIODIC_REPORT_HANDLE?PROTOCOL
002F68H   002F92H   00002BH   BYTE   UNIT     CODE           ?PR?_DP_DOWNLOAD_HUM_PERIODIC_REPORT_HANDLE?PROTOCOL
002F93H   002FBDH   00002BH   BYTE   UNIT     CODE           ?PR?_DP_DOWNLOAD_TEMP_SENSITIVITY_HANDLE?PROTOCOL
002FBEH   002FE8H   00002BH   BYTE   UNIT     CODE           ?PR?_DP_DOWNLOAD_HUM_SENSITIVITY_HANDLE?PROTOCOL
002FE9H   003013H   00002BH   BYTE   UNIT     CODE           ?PR?_DP_DOWNLOAD_TEMP_SET_HANDLE?PROTOCOL
003014H   00303DH   00002AH   BYTE   UNIT     CODE           ?PR?IIC_START?MYI2C
00303EH   003065H   000028H   BYTE   UNIT     CODE           ?PR?WIFI_PROTOCOL_INIT?MCU_API
003066H   00308CH   000027H   BYTE   UNIT     CODE           ?PR?HEAT_BEAT_CHECK?SYSTEM
00308DH   0030B2H   000026H   BYTE   UNIT     CODE           ?PR?_WRITE_IIC_COMMAND?OLED
0030B3H   0030D6H   000024H   BYTE   UNIT     CODE           ?PR?MYSYSTEM_INIT?MYSYSTEM
0030D7H   0030FAH   000024H   BYTE   UNIT     CODE           ?PR?BEEP_INIT?BEEP
0030FBH   00311DH   000023H   BYTE   UNIT     CODE           ?PR?LAMP_INIT?RGB
00311EH   00313EH   000021H   BYTE   UNIT     CODE           ?PR?MAIN?MAIN
00313FH   00315BH   00001DH   BYTE   UNIT     CODE           ?PR?IIC_ACK?MYI2C
00315CH   003178H   00001DH   BYTE   UNIT     CODE           ?PR?IIC_NACK?MYI2C
003179H   003195H   00001DH   BYTE   UNIT     CODE           ?PR?_OLED_POW?OLED
003196H   0031AFH   00001AH   BYTE   UNIT     CODE           ?PR?IIC_STOP?MYI2C
0031B0H   0031C4H   000015H   BYTE   UNIT     CODE           ?PR?TIMER1_INIT?MYSYSTEM
0031C5H   0031D7H   000013H   BYTE   UNIT     CODE           ?PR?_DP_DOWNLOAD_TEMP_UNIT_CONVERT_HANDLE?PROTOCOL
0031D8H   0031EAH   000013H   BYTE   UNIT     CODE           ?PR?_DP_DOWNLOAD_SWITCH_HANDLE?PROTOCOL
0031EBH   0031FCH   000012H   BYTE   UNIT     CODE           ?PR?INT2_INIT?KEY
0031FDH   00320EH   000012H   BYTE   UNIT     CODE           ?PR?INT4_INIT?KEY
00320FH   00321DH   00000FH   BYTE   UNIT     CODE           ?PR?GET_TIMER_250MS_VALUE?MYSYSTEM
00321EH   00322BH   00000EH   BYTE   UNIT     CODE           ?PR?_DELAY_US?DELAY
00322CH   003239H   00000EH   BYTE   UNIT     CODE           ?PR?MCU_RESET_WIFI?MCU_API
00323AH   003246H   00000DH   BYTE   UNIT     CODE           ?PR?IIC_GPIO_INIT?MYI2C
003247H   003253H   00000DH   BYTE   UNIT     CODE           ?PR?_MCU_GET_DP_DOWNLOAD_BOOL?MCU_API
003254H   003260H   00000DH   BYTE   UNIT     CODE           ?PR?_MCU_GET_DP_DOWNLOAD_ENUM?MCU_API
003261H   00326BH   00000BH   BYTE   UNIT     CODE           ?PR?_MCU_GET_DP_DOWNLOAD_VALUE?MCU_API
00326CH   003275H   00000AH   BYTE   UNIT     CODE           ?PR?GET_MCU_WIFI_MODE?SYSTEM
003276H   00327EH   000009H   BYTE   UNIT     CODE           ?PR?_WIFI_TEST_RESULT?PROTOCOL
00327FH   003281H   000003H   BYTE   UNIT     CODE           ?PR?_UART_TRANSMIT_OUTPUT?PROTOCOL
003282H   003284H   000003H   BYTE   UNIT     CODE           ?PR?GET_DOWNLOAD_CMD_TOTAL?PROTOCOL
003285H   003D23H   000A9FH   BYTE   UNIT     CONST          ?CO?OLED
003D24H   003D63H   000040H   BYTE   UNIT     CONST          ?CO?UART
003D64H   003D9EH   00003BH   BYTE   UNIT     CONST          ?CO?SYSTEM
003D9FH   003DA4H   000006H   BYTE   UNIT     CONST          ?CO?SHT30

* * * * * * * * * * *  X D A T A   M E M O R Y  * * * * * * * * * * * * *
000000H   00007BH   00007CH   BYTE   UNIT     XDATA          ?XD?UART
00007CH   0000F3H   000078H   BYTE   UNIT     XDATA          ?XD?SYSTEM
0000F4H   000132H   00003FH   BYTE   UNIT     XDATA          _XDATA_GROUP_
LX51 LINKER/LOCATER V4.66.87.0                                                        03/10/2021  11:45:25  PAGE 5


000133H   00015EH   00002CH   BYTE   UNIT     XDATA          ?XD?PROTOCOL
00015FH   000172H   000014H   BYTE   UNIT     XDATA          ?XD?MYSYSTEM
000173H   000180H   00000EH   BYTE   UNIT     XDATA          ?XD?RGB
000181H   000188H   000008H   BYTE   UNIT     XDATA          ?XD?KEY
000189H   00018EH   000006H   BYTE   UNIT     XDATA          ?XD?SHT30
00018FH   000190H   000002H   BYTE   UNIT     XDATA          ?XD?MCU_API
000191H   007FFFH   007E6FH   ---    ---      **GAP**
008000H   008000H   000001H   BYTE   OFFS..   XDATA          ?XD?MAIN?74
008001H   008001H   000001H   BYTE   OFFS..   XDATA          ?XD?MAIN?78
008002H   008002H   000001H   BYTE   OFFS..   XDATA          ?XD?MAIN?83
008003H   008003H   000001H   BYTE   OFFS..   XDATA          ?XD?MAIN?89
008004H   008004H   000001H   BYTE   OFFS..   XDATA          ?XD?MAIN?93
008005H   008005H   000001H   BYTE   OFFS..   XDATA          ?XD?MAIN?97
008006H   008006H   000001H   BYTE   OFFS..   XDATA          ?XD?MAIN?100
008007H   008007H   000001H   BYTE   OFFS..   XDATA          ?XD?MAIN?103
008008H   008008H   000001H   BYTE   OFFS..   XDATA          ?XD?MAIN?77
008009H   008009H   000001H   BYTE   OFFS..   XDATA          ?XD?MAIN?82
00800AH   00800AH   000001H   BYTE   OFFS..   XDATA          ?XD?MAIN?88
00800BH   00800BH   000001H   BYTE   OFFS..   XDATA          ?XD?MAIN?92
00800CH   00800CH   000001H   BYTE   OFFS..   XDATA          ?XD?MAIN?96
00800DH   00800DH   000001H   BYTE   OFFS..   XDATA          ?XD?MAIN?99
00800EH   00800EH   000001H   BYTE   OFFS..   XDATA          ?XD?MAIN?102
00800FH   00800FH   000001H   BYTE   OFFS..   XDATA          ?XD?MAIN?1
008010H   008010H   000001H   BYTE   OFFS..   XDATA          ?XD?MAIN?81
008011H   008017H   000007H   ---    ---      **GAP**
008018H   008018H   000001H   BYTE   OFFS..   XDATA          ?XD?MAIN?87
008019H   00807FH   000067H   ---    ---      **GAP**
008080H   008080H   000001H   BYTE   OFFS..   XDATA          ?XD?MAIN?60
008081H   008081H   000001H   BYTE   OFFS..   XDATA          ?XD?MAIN?65
008082H   008082H   000001H   BYTE   OFFS..   XDATA          ?XD?MAIN?61
008083H   008083H   000001H   BYTE   OFFS..   XDATA          ?XD?MAIN?31
008084H   008084H   000001H   BYTE   OFFS..   XDATA          ?XD?MAIN?26
008085H   008085H   000001H   BYTE   OFFS..   XDATA          ?XD?MAIN?33
008086H   008087H   000002H   ---    ---      **GAP**
008088H   008088H   000001H   BYTE   OFFS..   XDATA          ?XD?MAIN?22
008089H   008089H   000001H   BYTE   OFFS..   XDATA          ?XD?MAIN?21
00808AH   00808AH   000001H   BYTE   OFFS..   XDATA          ?XD?MAIN?32
00808BH   00808BH   000001H   BYTE   OFFS..   XDATA          ?XD?MAIN?30
00808CH   00808CH   000001H   BYTE   OFFS..   XDATA          ?XD?MAIN?29
00808DH   00808DH   000001H   BYTE   OFFS..   XDATA          ?XD?MAIN?24
00808EH   00808EH   000001H   ---    ---      **GAP**
00808FH   00808FH   000001H   BYTE   OFFS..   XDATA          ?XD?MAIN?56
008090H   008093H   000004H   ---    ---      **GAP**
008094H   008094H   000001H   BYTE   OFFS..   XDATA          ?XD?MAIN?50
008095H   008097H   000003H   ---    ---      **GAP**
008098H   008098H   000001H   BYTE   OFFS..   XDATA          ?XD?MAIN?18
008099H   008099H   000001H   BYTE   OFFS..   XDATA          ?XD?MAIN?13
00809AH   00809AH   000001H   BYTE   OFFS..   XDATA          ?XD?MAIN?36
00809BH   00809BH   000001H   BYTE   OFFS..   XDATA          ?XD?MAIN?45
00809CH   00809CH   000001H   BYTE   OFFS..   XDATA          ?XD?MAIN?44
00809DH   00809DH   000001H   BYTE   OFFS..   XDATA          ?XD?MAIN?95
00809EH   00809FH   000002H   ---    ---      **GAP**
0080A0H   0080A0H   000001H   BYTE   OFFS..   XDATA          ?XD?MAIN?34
0080A1H   0080A1H   000001H   BYTE   OFFS..   XDATA          ?XD?MAIN?86
0080A2H   0080A2H   000001H   BYTE   OFFS..   XDATA          ?XD?MAIN?52
0080A3H   0080A3H   000001H   BYTE   OFFS..   XDATA          ?XD?MAIN?55
0080A4H   0080A4H   000001H   BYTE   OFFS..   XDATA          ?XD?MAIN?53
0080A5H   0080A7H   000003H   ---    ---      **GAP**
0080A8H   0080A8H   000001H   BYTE   OFFS..   XDATA          ?XD?MAIN?2
0080A9H   0080A9H   000001H   BYTE   OFFS..   XDATA          ?XD?MAIN?17
0080AAH   0080AFH   000006H   ---    ---      **GAP**
0080B0H   0080B0H   000001H   BYTE   OFFS..   XDATA          ?XD?MAIN?48
0080B1H   0080B1H   000001H   BYTE   OFFS..   XDATA          ?XD?MAIN?43
0080B2H   0080B2H   000001H   BYTE   OFFS..   XDATA          ?XD?MAIN?51
0080B3H   0080B3H   000001H   BYTE   OFFS..   XDATA          ?XD?MAIN?59
LX51 LINKER/LOCATER V4.66.87.0                                                        03/10/2021  11:45:25  PAGE 6


0080B4H   0080B8H   000005H   ---    ---      **GAP**
0080B9H   0080B9H   000001H   BYTE   OFFS..   XDATA          ?XD?MAIN?37
0080BAH   0080BFH   000006H   ---    ---      **GAP**
0080C0H   0080C0H   000001H   BYTE   OFFS..   XDATA          ?XD?MAIN?101
0080C1H   0080C1H   000001H   BYTE   OFFS..   XDATA          ?XD?MAIN?42
0080C2H   0080C2H   000001H   BYTE   OFFS..   XDATA          ?XD?MAIN?40
0080C3H   0080C3H   000001H   BYTE   OFFS..   XDATA          ?XD?MAIN?49
0080C4H   0080C4H   000001H   BYTE   OFFS..   XDATA          ?XD?MAIN?46
0080C5H   0080CFH   00000BH   ---    ---      **GAP**
0080D0H   0080D0H   000001H   BYTE   OFFS..   XDATA          ?XD?MAIN?19
0080D1H   0080D1H   000001H   BYTE   OFFS..   XDATA          ?XD?MAIN?20
0080D2H   0080D2H   000001H   BYTE   OFFS..   XDATA          ?XD?MAIN?7
0080D3H   0080D3H   000001H   BYTE   OFFS..   XDATA          ?XD?MAIN?5
0080D4H   0080D4H   000001H   BYTE   OFFS..   XDATA          ?XD?MAIN?9
0080D5H   0080D5H   000001H   BYTE   OFFS..   XDATA          ?XD?MAIN?8
0080D6H   0080D6H   000001H   BYTE   OFFS..   XDATA          ?XD?MAIN?14
0080D7H   0080D7H   000001H   BYTE   OFFS..   XDATA          ?XD?MAIN?6
0080D8H   0080D8H   000001H   BYTE   OFFS..   XDATA          ?XD?MAIN?11
0080D9H   0080D9H   000001H   BYTE   OFFS..   XDATA          ?XD?MAIN?10
0080DAH   0080DAH   000001H   BYTE   OFFS..   XDATA          ?XD?MAIN?15
0080DBH   0080DBH   000001H   BYTE   OFFS..   XDATA          ?XD?MAIN?39
0080DCH   0080DCH   000001H   BYTE   OFFS..   XDATA          ?XD?MAIN?41
0080DDH   0080DDH   000001H   BYTE   OFFS..   XDATA          ?XD?MAIN?54
0080DEH   0080F7H   00001AH   ---    ---      **GAP**
0080F8H   0080F8H   000001H   BYTE   OFFS..   XDATA          ?XD?MAIN?98
0080F9H   0080F9H   000001H   BYTE   OFFS..   XDATA          ?XD?MAIN?12
0080FAH   0080FAH   000001H   BYTE   OFFS..   XDATA          ?XD?MAIN?16
0080FBH   0080FFH   000005H   ---    ---      **GAP**
008100H   008100H   000001H   BYTE   OFFS..   XDATA          ?XD?MAIN?4
008101H   008101H   000001H   BYTE   OFFS..   XDATA          ?XD?MAIN?25
008102H   008117H   000016H   ---    ---      **GAP**
008118H   008118H   000001H   BYTE   OFFS..   XDATA          ?XD?MAIN?27
008119H   008119H   000001H   BYTE   OFFS..   XDATA          ?XD?MAIN?28
00811AH   00811DH   000004H   ---    ---      **GAP**
00811EH   00811EH   000001H   BYTE   OFFS..   XDATA          ?XD?MAIN?0
00811FH   00811FH   000001H   BYTE   OFFS..   XDATA          ?XD?MAIN?3
008120H   008120H   000001H   BYTE   OFFS..   XDATA          ?XD?MAIN?64
008121H   008121H   000001H   BYTE   OFFS..   XDATA          ?XD?MAIN?67
008122H   008122H   000001H   BYTE   OFFS..   XDATA          ?XD?MAIN?70
008123H   008123H   000001H   BYTE   OFFS..   XDATA          ?XD?MAIN?73
008124H   008124H   000001H   BYTE   OFFS..   XDATA          ?XD?MAIN?76
008125H   008125H   000001H   BYTE   OFFS..   XDATA          ?XD?MAIN?80
008126H   008126H   000001H   BYTE   OFFS..   XDATA          ?XD?MAIN?85
008127H   008127H   000001H   BYTE   OFFS..   XDATA          ?XD?MAIN?91
008128H   008128H   000001H   BYTE   OFFS..   XDATA          ?XD?MAIN?66
008129H   008129H   000001H   BYTE   OFFS..   XDATA          ?XD?MAIN?69
00812AH   00812AH   000001H   BYTE   OFFS..   XDATA          ?XD?MAIN?72
00812BH   00812BH   000001H   BYTE   OFFS..   XDATA          ?XD?MAIN?75
00812CH   00812CH   000001H   BYTE   OFFS..   XDATA          ?XD?MAIN?79
00812DH   00812DH   000001H   BYTE   OFFS..   XDATA          ?XD?MAIN?84
00812EH   00812EH   000001H   BYTE   OFFS..   XDATA          ?XD?MAIN?90
00812FH   00812FH   000001H   BYTE   OFFS..   XDATA          ?XD?MAIN?94
008130H   008130H   000001H   BYTE   OFFS..   XDATA          ?XD?MAIN?68
008131H   008137H   000007H   ---    ---      **GAP**
008138H   008138H   000001H   BYTE   OFFS..   XDATA          ?XD?MAIN?71
008139H   00FBFFH   007AC7H   ---    ---      **GAP**
00FC00H   00FC00H   000001H   BYTE   OFFS..   XDATA          ?XD?MAIN?63
00FC01H   00FC01H   000001H   BYTE   OFFS..   XDATA          ?XD?MAIN?58
00FC02H   00FC02H   000001H   BYTE   OFFS..   XDATA          ?XD?MAIN?62
00FC03H   00FC03H   000001H   BYTE   OFFS..   XDATA          ?XD?MAIN?23
00FC04H   00FC04H   000001H   BYTE   OFFS..   XDATA          ?XD?MAIN?57
00FC05H   00FC05H   000001H   BYTE   OFFS..   XDATA          ?XD?MAIN?38
00FC06H   00FC06H   000001H   BYTE   OFFS..   XDATA          ?XD?MAIN?35
00FC07H   00FC07H   000001H   BYTE   OFFS..   XDATA          ?XD?MAIN?47

LX51 LINKER/LOCATER V4.66.87.0                                                        03/10/2021  11:45:25  PAGE 7


* * * * * * * * *   R E M O V E D     S E G M E N T S   * * * * * * * *
   *DEL*:           000033H   BYTE   UNIT     CODE           ?PR?_UARTPUTSTR?UART
   *DEL*:           000003H   BYTE   UNIT     XDATA          ?XD?_UARTPUTSTR?UART
   *DEL*:           00005FH   BYTE   UNIT     CODE           ?PR?_UART_PRINTF?UART
   *DEL*:           00012EH   BYTE   UNIT     XDATA          ?XD?_UART_PRINTF?UART
   *DEL*:           000016H   BYTE   UNIT     CODE           ?PR?_DELAY_50US?DELAY
   *DEL*:           000020H   BYTE   UNIT     CODE           ?PR?_DELAY_MS?DELAY
   *DEL*:           000002H   BYTE   UNIT     XDATA          ?XD?_DELAY_MS?DELAY
   *DEL*:           000001H   BYTE   UNIT     CODE           ?PR?DELAY_5US?DELAY
   *DEL*:           00000FH   BYTE   UNIT     CODE           ?PR?SYS_CLK_SET_IRCH?SYSTEM_CLOCK
   *DEL*:           000011H   BYTE   UNIT     CODE           ?PR?SYS_CLK_SET_IRCL?SYSTEM_CLOCK
   *DEL*:           000026H   BYTE   UNIT     CODE           ?PR?SYS_CLK_SET_XOSCH?SYSTEM_CLOCK
   *DEL*:           000017H   BYTE   UNIT     CODE           ?PR?SYS_CLK_SET_XCLK_IN?SYSTEM_CLOCK
   *DEL*:           00000FH   BYTE   UNIT     CODE           ?PR?GET_COUNT_VALUE?MYSYSTEM
   *DEL*:           000001H   BYTE   UNIT     CODE           ?PR?RGB_RUN?KEY
   *DEL*:           000033H   BYTE   UNIT     CODE           ?PR?_PWM_INIT?PWM
   *DEL*:           00000FH   BYTE   UNIT     CODE           ?PR?OLED_ON?OLED
   *DEL*:           00000FH   BYTE   UNIT     CODE           ?PR?OLED_OFF?OLED
   *DEL*:           000090H   BYTE   UNIT     CODE           ?PR?_OLED_DRAWBMP?OLED
   *DEL*:           00000BH   BYTE   UNIT     XDATA          ?XD?_OLED_DRAWBMP?OLED
   *DEL*:           000071H   BYTE   UNIT     CODE           ?PR?_HEX_TO_BCD?MCU_API
   *DEL*:           000058H   BYTE   UNIT     CODE           ?PR?_MY_MEMSET?MCU_API
   *DEL*:           000009H   BYTE   UNIT     XDATA          ?XD?_MY_MEMSET?MCU_API
   *DEL*:           00008AH   BYTE   UNIT     CODE           ?PR?_MY_STRCPY?MCU_API
   *DEL*:           000009H   BYTE   UNIT     XDATA          ?XD?_MY_STRCPY?MCU_API
   *DEL*:           000073H   BYTE   UNIT     CODE           ?PR?_MY_STRCMP?MCU_API
   *DEL*:           000006H   BYTE   UNIT     XDATA          ?XD?_MY_STRCMP?MCU_API
   *DEL*:           000060H   BYTE   UNIT     CODE           ?PR?_INT_TO_BYTE?MCU_API
   *DEL*:           000004H   BYTE   UNIT     XDATA          ?XD?_INT_TO_BYTE?MCU_API
   *DEL*:           00005AH   BYTE   UNIT     CODE           ?PR?_MCU_DP_RAW_UPDATE?MCU_API
   *DEL*:           000006H   BYTE   UNIT     XDATA          ?XD?_MCU_DP_RAW_UPDATE?MCU_API
   *DEL*:           00005AH   BYTE   UNIT     CODE           ?PR?_MCU_DP_STRING_UPDATE?MCU_API
   *DEL*:           000006H   BYTE   UNIT     XDATA          ?XD?_MCU_DP_STRING_UPDATE?MCU_API
   *DEL*:           00015EH   BYTE   UNIT     CODE           ?PR?_MCU_DP_FAULT_UPDATE?MCU_API
   *DEL*:           000007H   BYTE   UNIT     XDATA          ?XD?_MCU_DP_FAULT_UPDATE?MCU_API
   *DEL*:           00003FH   BYTE   UNIT     CODE           ?PR?_UART_RECEIVE_BUFF_INPUT?MCU_API
   *DEL*:           000005H   BYTE   UNIT     XDATA          ?XD?_UART_RECEIVE_BUFF_INPUT?MCU_API
   *DEL*:           000006H   BYTE   UNIT     CODE           ?PR?MCU_GET_RESET_WIFI_FLAG?MCU_API
   *DEL*:           000006H   BYTE   UNIT     CODE           ?PR?MCU_GET_WIFIMODE_FLAG?MCU_API
   *DEL*:           000017H   BYTE   UNIT     CODE           ?PR?_MCU_SET_WIFI_MODE?MCU_API
   *DEL*:           00000AH   BYTE   UNIT     CODE           ?PR?MCU_START_WIFITEST?MCU_API
   *DEL*:           00004AH   BYTE   UNIT     CODE           ?PR?_VSPRINTF?VSPRINTF
   *DEL*:           000006H   BYTE   UNIT     XDATA          ?XD?_VSPRINTF?VSPRINTF
   *DEL*:           000483H   BYTE   UNIT     CODE           ?PR?PRINTF?PRINTF
   *DEL*:           000005H   BYTE   UNIT     DATA           ?DT?PRINTF?PRINTF
   *DEL*:           000001H.1 BIT    UNIT     BIT            ?BI?PRINTF?PRINTF
   *DEL*:           000030H   BYTE   UNIT     XDATA          ?XD?PRINTF?PRINTF
   *DEL*:           000027H   BYTE   UNIT     CODE           ?PR?PUTCHAR?PUTCHAR



OVERLAY MAP OF MODULE:   .\output\ca51f003 (MAIN)


FUNCTION/MODULE                               XDATA_GROUP
--> CALLED FUNCTION/MODULE                    START  STOP
=========================================================
UART1_ISR/UART                                ----- -----
  +--> _UART_RECEIVE_INPUT/MCU_API

_UART_RECEIVE_INPUT/MCU_API                   00F4H 00F4H

*** NEW ROOT ********************************

TIMER0_ISR/MYSYSTEM                           ----- -----
LX51 LINKER/LOCATER V4.66.87.0                                                        03/10/2021  11:45:25  PAGE 8


  +--> _SCAN_GET_MSG/KEY

_SCAN_GET_MSG/KEY                             ----- -----

*** NEW ROOT ********************************

TIMER1_ISR/MYSYSTEM                           ----- -----

*** NEW ROOT ********************************

INT2_ISR/KEY                                  ----- -----

*** NEW ROOT ********************************

INT4_ISR/KEY                                  ----- -----

*** NEW ROOT ********************************

?C_C51STARTUP                                 ----- -----
  +--> MAIN/MAIN
  +--> ?C_INITSEG

MAIN/MAIN                                     ----- -----
  +--> _UART1_INITIAL/UART
  +--> MYSYSTEM_INIT/MYSYSTEM
  +--> WIFI_UART_SERVICE/MCU_API
  +--> KEY_SCAN/KEY
  +--> WIFI_WORK_STATE_LED/MYSYSTEM
  +--> RGB_LED_BREATHING/RGB
  +--> MEASURE_PERIOD_MODE/SHT30

_UART1_INITIAL/UART                           00F5H 00FBH

MYSYSTEM_INIT/MYSYSTEM                        ----- -----
  +--> MYGPIO_INIT/MYSYSTEM
  +--> INT2_INIT/KEY
  +--> INT4_INIT/KEY
  +--> TIMER0_INIT/MYSYSTEM
  +--> TIMER1_INIT/MYSYSTEM
  +--> LAMP_INIT/RGB
  +--> BEEP_INIT/BEEP
  +--> IIC_GPIO_INIT/MYI2C
  +--> SHT30_INIT/SHT30
  +--> OLED_INIT/OLED
  +--> WIFI_PROTOCOL_INIT/MCU_API
  +--> OLED_CLEAR/OLED

MYGPIO_INIT/MYSYSTEM                          ----- -----

INT2_INIT/KEY                                 ----- -----

INT4_INIT/KEY                                 ----- -----

TIMER0_INIT/MYSYSTEM                          ----- -----

TIMER1_INIT/MYSYSTEM                          ----- -----

LAMP_INIT/RGB                                 ----- -----
  +--> _SET_LAMP_DUTY/RGB
  +--> _SET_LAMP_COLOR/RGB

_SET_LAMP_DUTY/RGB                            ----- -----

_SET_LAMP_COLOR/RGB                           ----- -----

LX51 LINKER/LOCATER V4.66.87.0                                                        03/10/2021  11:45:25  PAGE 9


BEEP_INIT/BEEP                                ----- -----

IIC_GPIO_INIT/MYI2C                           ----- -----
  +--> IIC_STOP/MYI2C

IIC_STOP/MYI2C                                ----- -----
  +--> _DELAY_US/DELAY

_DELAY_US/DELAY                               ----- -----

SHT30_INIT/SHT30                              ----- -----
  +--> IIC_START/MYI2C
  +--> _IIC_SEND_BYTE/MYI2C
  +--> IIC_WAIT_ACK/MYI2C
  +--> IIC_STOP/MYI2C

IIC_START/MYI2C                               ----- -----
  +--> _DELAY_US/DELAY

_IIC_SEND_BYTE/MYI2C                          0131H 0132H
  +--> _DELAY_US/DELAY

IIC_WAIT_ACK/MYI2C                            0131H 0131H
  +--> _DELAY_US/DELAY
  +--> IIC_STOP/MYI2C

OLED_INIT/OLED                                ----- -----
  +--> _WRITE_IIC_COMMAND/OLED

_WRITE_IIC_COMMAND/OLED                       0130H 0130H
  +--> IIC_START/MYI2C
  +--> _IIC_SEND_BYTE/MYI2C
  +--> IIC_WAIT_ACK/MYI2C
  +--> IIC_STOP/MYI2C

WIFI_PROTOCOL_INIT/MCU_API                    ----- -----

OLED_CLEAR/OLED                               ----- -----
  +--> _OLED_FILL/OLED

_OLED_FILL/OLED                               00F5H 00F9H
  +--> _WRITE_IIC_COMMAND/OLED
  +--> _WRITE_IIC_DATA/OLED

_WRITE_IIC_DATA/OLED                          012FH 012FH
  +--> IIC_START/MYI2C
  +--> _IIC_SEND_BYTE/MYI2C
  +--> IIC_WAIT_ACK/MYI2C
  +--> IIC_STOP/MYI2C

WIFI_UART_SERVICE/MCU_API                     00F5H 00F8H
  +--> WITH_DATA_RXBUFF/SYSTEM
  +--> TAKE_BYTE_RXBUFF/SYSTEM
  +--> _GET_CHECK_SUM/SYSTEM
  +--> _DATA_HANDLE/SYSTEM
  +--> _MY_MEMCPY/MCU_API

WITH_DATA_RXBUFF/SYSTEM                       ----- -----

TAKE_BYTE_RXBUFF/SYSTEM                       ----- -----

_GET_CHECK_SUM/SYSTEM                         011BH 0120H

_DATA_HANDLE/SYSTEM                           00F9H 0101H
  +--> HEAT_BEAT_CHECK/SYSTEM
LX51 LINKER/LOCATER V4.66.87.0                                                        03/10/2021  11:45:25  PAGE 10


  +--> PRODUCT_INFO_UPDATE/SYSTEM
  +--> GET_MCU_WIFI_MODE/SYSTEM
  +--> _WIFI_UART_WRITE_FRAME/SYSTEM
  +--> _DATA_POINT_HANDLE/SYSTEM
  +--> ALL_DATA_UPDATE/PROTOCOL
  +--> _WIFI_TEST_RESULT/PROTOCOL

HEAT_BEAT_CHECK/SYSTEM                        ----- -----
  +--> _SET_WIFI_UART_BYTE/SYSTEM
  +--> _WIFI_UART_WRITE_FRAME/SYSTEM

_SET_WIFI_UART_BYTE/SYSTEM                    0119H 011AH

_WIFI_UART_WRITE_FRAME/SYSTEM                 0119H 011AH
  +--> _GET_CHECK_SUM/SYSTEM
  +--> _WIFI_UART_WRITE_DATA/SYSTEM

_WIFI_UART_WRITE_DATA/SYSTEM                  011BH 011FH
  +--> _UART_TRANSMIT_OUTPUT/PROTOCOL

_UART_TRANSMIT_OUTPUT/PROTOCOL                ----- -----
  +--> _UART1_PUTCHAR/UART

_UART1_PUTCHAR/UART                           ----- -----

PRODUCT_INFO_UPDATE/SYSTEM                    0102H 010CH
  +--> _MY_STRLEN/MCU_API
  +--> _SET_WIFI_UART_BUFFER/SYSTEM
  +--> _WIFI_UART_WRITE_FRAME/SYSTEM

_MY_STRLEN/MCU_API                            010DH 0113H

_SET_WIFI_UART_BUFFER/SYSTEM                  010DH 0113H
  +--> _MY_MEMCPY/MCU_API

_MY_MEMCPY/MCU_API                            0114H 0123H

GET_MCU_WIFI_MODE/SYSTEM                      ----- -----
  +--> _WIFI_UART_WRITE_FRAME/SYSTEM

_DATA_POINT_HANDLE/SYSTEM                     0102H 0108H
  +--> _GET_DOWMLOAD_DPID_INDEX/SYSTEM
  +--> _DP_DOWNLOAD_HANDLE/PROTOCOL

_GET_DOWMLOAD_DPID_INDEX/SYSTEM               0109H 0109H
  +--> GET_DOWNLOAD_CMD_TOTAL/PROTOCOL

GET_DOWNLOAD_CMD_TOTAL/PROTOCOL               ----- -----

_DP_DOWNLOAD_HANDLE/PROTOCOL                  0109H 010FH
  +--> _DP_DOWNLOAD_TEMP_SAMPLING_HANDLE/PROTOCOL
  +--> _DP_DOWNLOAD_HUMIDITY_SAMPLING_HANDLE/PROTOCOL
  +--> _DP_DOWNLOAD_TEMP_UNIT_CONVERT_HANDLE/PROTOCOL
  +--> _DP_DOWNLOAD_MAXTEMP_SET_HANDLE/PROTOCOL
  +--> _DP_DOWNLOAD_MINITEMP_SET_HANDLE/PROTOCOL
  +--> _DP_DOWNLOAD_MAXHUM_SET_HANDLE/PROTOCOL
  +--> _DP_DOWNLOAD_MINIHUM_SET_HANDLE/PROTOCOL
  +--> _DP_DOWNLOAD_BRIGHT_VALUE_HANDLE/PROTOCOL
  +--> _DP_DOWNLOAD_TEMP_PERIODIC_REPORT_HANDLE/PROTOCOL
  +--> _DP_DOWNLOAD_HUM_PERIODIC_REPORT_HANDLE/PROTOCOL
  +--> _DP_DOWNLOAD_TEMP_SENSITIVITY_HANDLE/PROTOCOL
  +--> _DP_DOWNLOAD_HUM_SENSITIVITY_HANDLE/PROTOCOL
  +--> _DP_DOWNLOAD_SWITCH_HANDLE/PROTOCOL
  +--> _DP_DOWNLOAD_TEMP_SET_HANDLE/PROTOCOL

LX51 LINKER/LOCATER V4.66.87.0                                                        03/10/2021  11:45:25  PAGE 11


_DP_DOWNLOAD_TEMP_SAMPLING_HANDLE/PROTOC+     0110H 0113H
... OL
  +--> _MCU_GET_DP_DOWNLOAD_VALUE/MCU_API
  +--> _MCU_DP_VALUE_UPDATE/MCU_API

_MCU_GET_DP_DOWNLOAD_VALUE/MCU_API            0114H 0115H
  +--> _BYTE_TO_INT/MCU_API

_BYTE_TO_INT/MCU_API                          0116H 011CH

_MCU_DP_VALUE_UPDATE/MCU_API                  0114H 0118H
  +--> _SET_WIFI_UART_BYTE/SYSTEM
  +--> _WIFI_UART_WRITE_FRAME/SYSTEM

_DP_DOWNLOAD_HUMIDITY_SAMPLING_HANDLE/PR+     0110H 0113H
... OTOCOL
  +--> _MCU_GET_DP_DOWNLOAD_VALUE/MCU_API
  +--> _MCU_DP_VALUE_UPDATE/MCU_API

_DP_DOWNLOAD_TEMP_UNIT_CONVERT_HANDLE/PR+     ----- -----
... OTOCOL
  +--> _MCU_GET_DP_DOWNLOAD_ENUM/MCU_API
  +--> _MCU_DP_ENUM_UPDATE/MCU_API

_MCU_GET_DP_DOWNLOAD_ENUM/MCU_API             0110H 0111H

_MCU_DP_ENUM_UPDATE/MCU_API                   0110H 0110H
  +--> _SET_WIFI_UART_BYTE/SYSTEM
  +--> _WIFI_UART_WRITE_FRAME/SYSTEM

_DP_DOWNLOAD_MAXTEMP_SET_HANDLE/PROTOCOL      0110H 0113H
  +--> _MCU_GET_DP_DOWNLOAD_VALUE/MCU_API
  +--> _MCU_DP_VALUE_UPDATE/MCU_API

_DP_DOWNLOAD_MINITEMP_SET_HANDLE/PROTOCO+     0110H 0113H
... L
  +--> _MCU_GET_DP_DOWNLOAD_VALUE/MCU_API
  +--> _MCU_DP_VALUE_UPDATE/MCU_API

_DP_DOWNLOAD_MAXHUM_SET_HANDLE/PROTOCOL       0110H 0113H
  +--> _MCU_GET_DP_DOWNLOAD_VALUE/MCU_API
  +--> _MCU_DP_VALUE_UPDATE/MCU_API

_DP_DOWNLOAD_MINIHUM_SET_HANDLE/PROTOCOL      0110H 0113H
  +--> _MCU_GET_DP_DOWNLOAD_VALUE/MCU_API
  +--> _MCU_DP_VALUE_UPDATE/MCU_API

_DP_DOWNLOAD_BRIGHT_VALUE_HANDLE/PROTOCO+     0110H 0113H
... L
  +--> _MCU_GET_DP_DOWNLOAD_VALUE/MCU_API
  +--> _MCU_DP_VALUE_UPDATE/MCU_API

_DP_DOWNLOAD_TEMP_PERIODIC_REPORT_HANDLE+     0110H 0113H
... /PROTOCOL
  +--> _MCU_GET_DP_DOWNLOAD_VALUE/MCU_API
  +--> _MCU_DP_VALUE_UPDATE/MCU_API

_DP_DOWNLOAD_HUM_PERIODIC_REPORT_HANDLE/+     0110H 0113H
... PROTOCOL
  +--> _MCU_GET_DP_DOWNLOAD_VALUE/MCU_API
  +--> _MCU_DP_VALUE_UPDATE/MCU_API

_DP_DOWNLOAD_TEMP_SENSITIVITY_HANDLE/PRO+     0110H 0113H
... TOCOL
  +--> _MCU_GET_DP_DOWNLOAD_VALUE/MCU_API
LX51 LINKER/LOCATER V4.66.87.0                                                        03/10/2021  11:45:25  PAGE 12


  +--> _MCU_DP_VALUE_UPDATE/MCU_API

_DP_DOWNLOAD_HUM_SENSITIVITY_HANDLE/PROT+     0110H 0113H
... OCOL
  +--> _MCU_GET_DP_DOWNLOAD_VALUE/MCU_API
  +--> _MCU_DP_VALUE_UPDATE/MCU_API

_DP_DOWNLOAD_SWITCH_HANDLE/PROTOCOL           ----- -----
  +--> _MCU_GET_DP_DOWNLOAD_BOOL/MCU_API
  +--> _MCU_DP_BOOL_UPDATE/MCU_API

_MCU_GET_DP_DOWNLOAD_BOOL/MCU_API             0110H 0111H

_MCU_DP_BOOL_UPDATE/MCU_API                   0110H 0110H
  +--> _SET_WIFI_UART_BYTE/SYSTEM
  +--> _WIFI_UART_WRITE_FRAME/SYSTEM

_DP_DOWNLOAD_TEMP_SET_HANDLE/PROTOCOL         0110H 0113H
  +--> _MCU_GET_DP_DOWNLOAD_VALUE/MCU_API
  +--> _MCU_DP_VALUE_UPDATE/MCU_API

ALL_DATA_UPDATE/PROTOCOL                      ----- -----
  +--> _MCU_DP_ENUM_UPDATE/MCU_API
  +--> _MCU_DP_VALUE_UPDATE/MCU_API
  +--> _MCU_DP_BOOL_UPDATE/MCU_API

_WIFI_TEST_RESULT/PROTOCOL                    0102H 0103H

KEY_SCAN/KEY                                  ----- -----
  +--> MCU_RESET_WIFI/MCU_API
  +--> _SET_LAMP_DUTY/RGB
  +--> _SET_LAMP_COLOR/RGB

MCU_RESET_WIFI/MCU_API                        ----- -----
  +--> _WIFI_UART_WRITE_FRAME/SYSTEM

WIFI_WORK_STATE_LED/MYSYSTEM                  ----- -----
  +--> MCU_GET_WIFI_WORK_STATE/MCU_API
  +--> GET_TIMER_250MS_VALUE/MYSYSTEM
  +--> _SET_LAMP_DUTY/RGB
  +--> _SET_LAMP_COLOR/RGB

MCU_GET_WIFI_WORK_STATE/MCU_API               ----- -----

GET_TIMER_250MS_VALUE/MYSYSTEM                ----- -----

RGB_LED_BREATHING/RGB                         ----- -----

MEASURE_PERIOD_MODE/SHT30                     00F5H 0100H
  +--> IIC_START/MYI2C
  +--> _IIC_SEND_BYTE/MYI2C
  +--> IIC_WAIT_ACK/MYI2C
  +--> _IIC_READ_BYTE/MYI2C
  +--> IIC_STOP/MYI2C
  +--> _CRC_8/SHT30
  +--> _MCU_DP_VALUE_UPDATE/MCU_API
  +--> _OLED_TEMP_HUMI_DISPLAY/OLED

_IIC_READ_BYTE/MYI2C                          0101H 0103H
  +--> _DELAY_US/DELAY
  +--> IIC_NACK/MYI2C
  +--> IIC_ACK/MYI2C

IIC_NACK/MYI2C                                ----- -----
  +--> _DELAY_US/DELAY
LX51 LINKER/LOCATER V4.66.87.0                                                        03/10/2021  11:45:25  PAGE 13



IIC_ACK/MYI2C                                 ----- -----
  +--> _DELAY_US/DELAY

_CRC_8/SHT30                                  0101H 0105H

_OLED_TEMP_HUMI_DISPLAY/OLED                  0101H 010AH
  +--> _OLED_SHOWCN/OLED
  +--> _OLED_SHOWCHAR/OLED
  +--> _OLED_SHOW_FLOAT_NUMBER/OLED
  +--> _OLED_SHOWSTR/OLED

_OLED_SHOWCN/OLED                             010BH 0110H
  +--> _OLED_SETPOS/OLED
  +--> _WRITE_IIC_DATA/OLED

_OLED_SETPOS/OLED                             012FH 012FH
  +--> _WRITE_IIC_COMMAND/OLED

_OLED_SHOWCHAR/OLED                           0129H 012EH
  +--> _OLED_SETPOS/OLED
  +--> _WRITE_IIC_DATA/OLED

_OLED_SHOW_FLOAT_NUMBER/OLED                  010BH 0118H
  +--> _OLED_SHOWNUM/OLED
  +--> _OLED_SHOWCHAR/OLED

_OLED_SHOWNUM/OLED                            0119H 0128H
  +--> _OLED_SHOWCHAR/OLED
  +--> _OLED_POW/OLED

_OLED_POW/OLED                                ----- -----

_OLED_SHOWSTR/OLED                            010BH 0113H
  +--> _OLED_SHOWCHAR/OLED

?C_INITSEG                                    ----- -----



PUBLIC SYMBOLS OF MODULE:  .\output\ca51f003 (MAIN)


      VALUE       CLASS    TYPE      PUBLIC SYMBOL NAME
      =================================================
      02000109H   XDATA    BYTE      ?_dp_download_handle?BYTE
*DEL*:00000000H   XDATA    BYTE      ?_mcu_dp_fault_update?BYTE
*DEL*:00000000H   XDATA    BYTE      ?_mcu_dp_raw_update?BYTE
*DEL*:00000000H   XDATA    BYTE      ?_mcu_dp_string_update?BYTE
      02000114H   XDATA    BYTE      ?_mcu_dp_value_update?BYTE
      02000114H   XDATA    BYTE      ?_my_memcpy?BYTE
*DEL*:00000000H   XDATA    BYTE      ?_my_memset?BYTE
*DEL*:00000000H   XDATA    BYTE      ?_my_strcmp?BYTE
*DEL*:00000000H   XDATA    BYTE      ?_my_strcpy?BYTE
*DEL*:00000000H   XDATA    BYTE      ?_OLED_DrawBMP?BYTE
      0200010BH   XDATA    BYTE      ?_OLED_Show_Float_Number?BYTE
      02000129H   XDATA    BYTE      ?_OLED_ShowChar?BYTE
      02000119H   XDATA    BYTE      ?_OLED_ShowNum?BYTE
      0200010BH   XDATA    BYTE      ?_OLED_ShowStr?BYTE
      02000101H   XDATA    BYTE      ?_OLED_Temp_Humi_Display?BYTE
*DEL*:00000000H   XDATA    ---       ?_PRINTF?BYTE
      0200010DH   XDATA    BYTE      ?_set_wifi_uart_buffer?BYTE
*DEL*:00000000H   XDATA    ---       ?_SPRINTF?BYTE
*DEL*:00000000H   XDATA    BYTE      ?_uart_printf?BYTE
*DEL*:0000FFFDH   XDATA    ---       ?_VSPRINTF?BYTE
LX51 LINKER/LOCATER V4.66.87.0                                                        03/10/2021  11:45:25  PAGE 14


      010003B4H   CODE     ---       ?C?CASTF
      01000939H   CODE     ---       ?C?CCASE
      010006F6H   CODE     ---       ?C?CLDOPTR
      010006DDH   CODE     ---       ?C?CLDPTR
      00000000H   NUMBER   ---       ?C?CODESEG
      010006B7H   CODE     ---       ?C?COPY
      01000735H   CODE     ---       ?C?CSTOPTR
      01000723H   CODE     ---       ?C?CSTPTR
      01000380H   CODE     ---       ?C?FCASTC
      0100037BH   CODE     ---       ?C?FCASTI
      01000376H   CODE     ---       ?C?FCASTL
      01000055H   CODE     ---       ?C?FPADD
      010002EEH   CODE     ---       ?C?FPCMP
      010002ECH   CODE     ---       ?C?FPCMP3
      01000472H   CODE     ---       ?C?FPCONVERT
      0100024FH   CODE     ---       ?C?FPDIV
      010003EBH   CODE     ---       ?C?FPGETOPN2
      01000146H   CODE     ---       ?C?FPMUL
      01000420H   CODE     ---       ?C?FPNANRESULT
      01000365H   CODE     ---       ?C?FPNEG
      0100042AH   CODE     ---       ?C?FPOVERFLOW
      01000402H   CODE     ---       ?C?FPRESULT
      01000416H   CODE     ---       ?C?FPRESULT2
      01000435H   CODE     ---       ?C?FPROUND
      01000051H   CODE     ---       ?C?FPSUB
      01000427H   CODE     ---       ?C?FPUNDERFLOW
      010005A7H   CODE     ---       ?C?FTNPWR
      0100078DH   CODE     ---       ?C?IILDX
      010007A3H   CODE     ---       ?C?ILDIX
      010008CCH   CODE     ---       ?C?LLDCODE
      01000887H   CODE     ---       ?C?LNEG
      010008B9H   CODE     ---       ?C?LSHL
      010008E8H   CODE     ---       ?C?LSTKXDATA
      010008DCH   CODE     ---       ?C?LSTXDATA
      01000919H   CODE     ---       ?C?PLDIXDATA
      01000930H   CODE     ---       ?C?PSTXDATA
      01000757H   CODE     ---       ?C?SIDIV
      0100095FH   CODE     ---       ?C?UIDIV
      01000895H   CODE     ---       ?C?ULCMP
      010007F5H   CODE     ---       ?C?ULDIV
      010008A6H   CODE     ---       ?C?ULSHR
      00000000H   NUMBER   ---       ?C?XDATASEG
      01002594H   CODE     ---       ?C_START
      01000000H   CODE     ---       ?C_STARTUP
      01001882H   CODE     ---       _byte_to_int
      010029E5H   CODE     ---       _CRC_8
      01001729H   CODE     ---       _data_handle
*DEL*:00000000H   CODE     ---       _Delay_50us
*DEL*:00000000H   CODE     ---       _Delay_ms
      0100321EH   CODE     ---       _Delay_us
      01001426H   CODE     ---       _dp_download_handle
      01002BE6H   CODE     ---       _get_check_sum
*DEL*:00000000H   CODE     ---       _hex_to_bcd
      01002B46H   CODE     ---       _IIC_Read_Byte
      01002A9EH   CODE     ---       _IIC_Send_Byte
*DEL*:00000000H   CODE     ---       _int_to_byte
      01002C30H   CODE     ---       _mcu_dp_bool_update
      01002C73H   CODE     ---       _mcu_dp_enum_update
*DEL*:00000000H   CODE     ---       _mcu_dp_fault_update
*DEL*:00000000H   CODE     ---       _mcu_dp_raw_update
*DEL*:00000000H   CODE     ---       _mcu_dp_string_update
      010021C5H   CODE     ---       _mcu_dp_value_update
      01003247H   CODE     ---       _mcu_get_dp_download_bool
      01003254H   CODE     ---       _mcu_get_dp_download_enum
      01003261H   CODE     ---       _mcu_get_dp_download_value
LX51 LINKER/LOCATER V4.66.87.0                                                        03/10/2021  11:45:25  PAGE 15


*DEL*:00000000H   CODE     ---       _mcu_set_wifi_mode
      010015C2H   CODE     ---       _my_memcpy
*DEL*:00000000H   CODE     ---       _my_memset
*DEL*:00000000H   CODE     ---       _my_strcmp
*DEL*:00000000H   CODE     ---       _my_strcpy
      01002762H   CODE     ---       _my_strlen
*DEL*:00000000H   CODE     ---       _OLED_DrawBMP
      01002B99H   CODE     ---       _OLED_Fill
      01003180H   CODE     ---       _OLED_Pow
      01002DBFH   CODE     ---       _OLED_SetPos
      01000BF9H   CODE     ---       _OLED_Show_Float_Number
      01001DFCH   CODE     ---       _OLED_ShowChar
      0100230CH   CODE     ---       _OLED_ShowCN
      01000E40H   CODE     ---       _OLED_ShowNum
      010026E1H   CODE     ---       _OLED_ShowStr
      01001ED2H   CODE     ---       _OLED_Temp_Humi_Display
*DEL*:0000006BH   CODE     ---       _PRINTF
*DEL*:00000000H   CODE     ---       _PUTCHAR
*DEL*:00000000H   CODE     ---       _PWM_Init
      010023A0H   CODE     ---       _scan_get_msg
      0100226BH   CODE     ---       _set_lamp_color
      0100265FH   CODE     ---       _set_lamp_duty
      0100284DH   CODE     ---       _set_wifi_uart_buffer
      01002DE4H   CODE     ---       _set_wifi_uart_byte
*DEL*:00000065H   CODE     ---       _SPRINTF
      01001FBEH   CODE     ---       _Uart1_Initial
      010028B0H   CODE     ---       _Uart1_PutChar
*DEL*:00000000H   CODE     ---       _uart_printf
*DEL*:00000000H   CODE     ---       _uart_receive_buff_input
      01002073H   CODE     ---       _uart_receive_input
      0100327FH   CODE     ---       _uart_transmit_output
*DEL*:00000000H   CODE     ---       _UartPutStr
*DEL*:00000000H   CODE     ---       _VSPRINTF
      01003276H   CODE     ---       _wifi_test_result
      01002919H   CODE     ---       _wifi_uart_write_frame
      0100308DH   CODE     ---       _Write_IIC_Command
      01002D2EH   CODE     ---       _Write_IIC_Data
*SFR* 000000D0H.6 DATA     BIT       AC
*SFR* 000000E0H   DATA     BYTE      ACC
      02008094H   XDATA    BYTE      ACPBC
      0200808DH   XDATA    BYTE      ACPDHH
      0200808CH   XDATA    BYTE      ACPDHL
      0200808BH   XDATA    BYTE      ACPDLH
      0200808AH   XDATA    BYTE      ACPDLL
      02008089H   XDATA    BYTE      ADCALH
      02008088H   XDATA    BYTE      ADCALL
*SFR* 000000BDH   DATA     BYTE      ADCDH
*SFR* 000000BCH   DATA     BYTE      ADCDL
*SFR* 000000BBH   DATA     BYTE      ADCFGH
*SFR* 000000BAH   DATA     BYTE      ADCFGL
*SFR* 000000B9H   DATA     BYTE      ADCON
      0200808FH   XDATA    BYTE      ADOPC
      01001BFCH   CODE     ---       all_data_update
      020080B9H   XDATA    BYTE      AMPAOS
*SFR* 000000F0H   DATA     BYTE      B
      010030D7H   CODE     ---       Beep_Init
      0200017DH   XDATA    BYTE      blue_duty
      01003D44H   CONST    ---       BR_SET_TAB
      01003D24H   CONST    ---       BR_TAB
      0200017AH   XDATA    WORD      breathing_timer
      020080C0H   XDATA    BYTE      BZCON
      020080C2H   XDATA    BYTE      BZDIVH
      020080C1H   XDATA    BYTE      BZDIVL
      020080C4H   XDATA    BYTE      BZDUTH
      020080C3H   XDATA    BYTE      BZDUTL
LX51 LINKER/LOCATER V4.66.87.0                                                        03/10/2021  11:45:25  PAGE 16


      01003AA4H   CONST    ---       CH
      02008080H   XDATA    BYTE      CKCON
      02008082H   XDATA    BYTE      CKDIV
      02008081H   XDATA    BYTE      CKSEL
      0200016FH   XDATA    BYTE      Cnt_1mD
      02000171H   XDATA    BYTE      Cnt_1mN
      02000170H   XDATA    BYTE      Cnt_1sD
      02000172H   XDATA    BYTE      Cnt_1sN
      02000160H   XDATA    BYTE      Cnt_msD
      02000161H   XDATA    BYTE      Cnt_msN
*SFR* 000000D0H.7 DATA     BIT       CY
      00000020H.3 BIT      BIT       Day_Flag
      00000020H.2 BIT      BIT       Day_Time_Flag
      020080D3H   XDATA    BYTE      DCB0HH
      020080D4H   XDATA    BYTE      DCB0HL
      020080D5H   XDATA    BYTE      DCB0LH
      020080D6H   XDATA    BYTE      DCB0LL
      020080D7H   XDATA    BYTE      DCB1HH
      020080D8H   XDATA    BYTE      DCB1HL
      020080D9H   XDATA    BYTE      DCB1LH
      020080DAH   XDATA    BYTE      DCB1LL
      020080D0H   XDATA    BYTE      DCCR
      020080D2H   XDATA    BYTE      DCDB
      020080D1H   XDATA    BYTE      DCDS
      020080DDH   XDATA    BYTE      DCFCR
      020080DBH   XDATA    BYTE      DCOVRH
      020080DCH   XDATA    BYTE      DCOVRL
*DEL*:00000000H   CODE     ---       Delay_5us
      02000133H   XDATA    ---       download_cmd
*SFR* 00000083H   DATA     BYTE      DP0H
*SFR* 00000082H   DATA     BYTE      DP0L
*SFR* 00000085H   DATA     BYTE      DP1H
*SFR* 00000084H   DATA     BYTE      DP1L
*SFR* 000000D0H.1 DATA     BIT       DPS
*SFR* 000000A8H.7 DATA     BIT       EA
*SFR* 000000FBH   DATA     BYTE      EPCON
*SFR* 000000F9H   DATA     BYTE      EPIE
*SFR* 000000FAH   DATA     BYTE      EPIF
*SFR* 000000A8H.4 DATA     BIT       ES0
*SFR* 000000A8H.6 DATA     BIT       ES1
*SFR* 000000A8H.1 DATA     BIT       ET0
*SFR* 000000A8H.3 DATA     BIT       ET1
*SFR* 000000A8H.5 DATA     BIT       ET2
*SFR* 000000A8H.0 DATA     BIT       EX0
*SFR* 000000A8H.2 DATA     BIT       EX1
*SFR* 000000E8H   DATA     BYTE      EXIE
*SFR* 000000F8H   DATA     BYTE      EXIP
*SFR* 000000D0H.5 DATA     BIT       F0
      0100328CH   CONST    ---       F6x8
      010034B4H   CONST    ---       F8X16
      0200017EH   XDATA    BYTE      f_flash
      02000175H   XDATA    WORD      flash_timer
      0200FC01H   XDATA    BYTE      FSCMD
      0200FC02H   XDATA    BYTE      FSDAT
      0200811EH   XDATA    BYTE      FTCTL
      0200018BH   XDATA    FLOAT     fTemperature
*DEL*:00000000H   CODE     ---       get_count_value
      01003282H   CODE     ---       get_download_cmd_total
      0100320FH   CODE     ---       get_timer_250ms_value
      02000184H   XDATA    BYTE      gp_10ms_timer
      02000180H   XDATA    BYTE      gp_2_5ms_timer
      02000179H   XDATA    BYTE      green_duty
*SFR* 000000B3H   DATA     BYTE      I2CADM
*SFR* 000000B2H   DATA     BYTE      I2CADR
*SFR* 000000B1H   DATA     BYTE      I2CCON
LX51 LINKER/LOCATER V4.66.87.0                                                        03/10/2021  11:45:25  PAGE 17


*SFR* 000000B4H   DATA     BYTE      I2CCR
*SFR* 000000B5H   DATA     BYTE      I2CDAT
*SFR* 000000B7H   DATA     BYTE      I2CFLG
      02008101H   XDATA    BYTE      I2CIOS
*SFR* 000000B6H   DATA     BYTE      I2CSTA
*SFR* 000000FDH   DATA     BYTE      IDLSTH
*SFR* 000000FCH   DATA     BYTE      IDLSTL
*SFR* 000000A8H   DATA     BYTE      IE
*SFR* 00000088H.1 DATA     BIT       IE0
*SFR* 00000088H.3 DATA     BIT       IE1
      02008084H   XDATA    BYTE      IHCFGH
      02008083H   XDATA    BYTE      IHCFGL
      0100313FH   CODE     ---       IIC_Ack
      0100323AH   CODE     ---       IIC_GPIO_Init
      0100315CH   CODE     ---       IIC_NAck
      01003014H   CODE     ---       IIC_Start
      01003196H   CODE     ---       IIC_Stop
      01002CE9H   CODE     ---       IIC_Wait_Ack
      02008085H   XDATA    BYTE      ILCFGL
*SFR* 000000F7H   DATA     BYTE      INDEX
      010031EBH   CODE     ---       INT2_Init
      0100000EH   CODE     ---       INT2_ISR
*SFR* 000000E8H.0 DATA     BIT       INT2EN
*SFR* 000000E8H.1 DATA     BIT       INT3EN
      010031FDH   CODE     ---       INT4_Init
      0100003EH   CODE     ---       INT4_ISR
*SFR* 000000E8H.2 DATA     BIT       INT4EN
*SFR* 000000E8H.3 DATA     BIT       INT5EN
*SFR* 000000E8H.4 DATA     BIT       INT6EN
*SFR* 000000E8H.5 DATA     BIT       INT7EN
*SFR* 000000E8H.6 DATA     BIT       INT8EN
*SFR* 000000E8H.7 DATA     BIT       INT9EN
*SFR* 000000B8H   DATA     BYTE      IP
*SFR* 00000088H.0 DATA     BIT       IT0
*SFR* 0000008FH   DATA     BYTE      IT0CON
*SFR* 00000088H.2 DATA     BIT       IT1
*SFR* 0000008EH   DATA     BYTE      IT1CON
      02000185H   XDATA    BYTE      KEY_Mode
      010027D7H   CODE     ---       KEY_Scan
      02000186H   XDATA    WORD      KeyMsg
      010030FBH   CODE     ---       lamp_init
      0200017CH   XDATA    BYTE      led_breathing_index
      02000178H   XDATA    BYTE      led_color_index
      0200FC03H   XDATA    BYTE      LOCK
*SFR* 000000EFH   DATA     BYTE      LVDCON
      0100311EH   CODE     ---       main
*DEL*:00000000H   CODE     ---       mcu_get_reset_wifi_flag
      01000003H   CODE     ---       mcu_get_wifi_work_state
*DEL*:00000000H   CODE     ---       mcu_get_wifimode_flag
      0100322CH   CODE     ---       mcu_reset_wifi
*DEL*:00000000H   CODE     ---       mcu_start_wifitest
*SFR* 000000E6H   DATA     BYTE      MDUCON
*SFR* 000000E7H   DATA     BYTE      MDUDAT
      01001261H   CODE     ---       Measure_Period_Mode
      0200FC00H   XDATA    BYTE      MECON
      01000009H   CODE     ---       MyGPIO_Init
      010030B3H   CODE     ---       MySystem_Init
      00000020H.1 BIT      BIT       Night_Flag
      00000020H.0 BIT      BIT       Night_Time_Flag
      01000036H   CODE     ---       OLED_Clear
      010024C1H   CODE     ---       OLED_Init
*DEL*:00000000H   CODE     ---       OLED_OFF
*DEL*:00000000H   CODE     ---       OLED_ON
*SFR* 000000D0H.2 DATA     BIT       OV
*SFR* 000000D0H.0 DATA     BIT       P
LX51 LINKER/LOCATER V4.66.87.0                                                        03/10/2021  11:45:25  PAGE 18


*SFR* 00000080H   DATA     BYTE      P0
*SFR* 00000080H.0 DATA     BIT       P00
      02008120H   XDATA    BYTE      P00C
      02008000H   XDATA    BYTE      P00F
*SFR* 00000080H.1 DATA     BIT       P01
      02008121H   XDATA    BYTE      P01C
      02008001H   XDATA    BYTE      P01F
*SFR* 00000080H.2 DATA     BIT       P02
      02008122H   XDATA    BYTE      P02C
      02008002H   XDATA    BYTE      P02F
*SFR* 00000080H.3 DATA     BIT       P03
      02008123H   XDATA    BYTE      P03C
      02008003H   XDATA    BYTE      P03F
*SFR* 00000080H.4 DATA     BIT       P04
      02008124H   XDATA    BYTE      P04C
      02008004H   XDATA    BYTE      P04F
*SFR* 00000080H.5 DATA     BIT       P05
      02008125H   XDATA    BYTE      P05C
      02008005H   XDATA    BYTE      P05F
*SFR* 00000080H.6 DATA     BIT       P06
      02008126H   XDATA    BYTE      P06C
      02008006H   XDATA    BYTE      P06F
*SFR* 00000080H.7 DATA     BIT       P07
      02008127H   XDATA    BYTE      P07C
      02008007H   XDATA    BYTE      P07F
*SFR* 00000090H   DATA     BYTE      P1
*SFR* 00000090H.0 DATA     BIT       P10
      02008128H   XDATA    BYTE      P10C
      02008008H   XDATA    BYTE      P10F
*SFR* 00000090H.1 DATA     BIT       P11
      02008129H   XDATA    BYTE      P11C
      02008009H   XDATA    BYTE      P11F
*SFR* 00000090H.2 DATA     BIT       P12
      0200812AH   XDATA    BYTE      P12C
      0200800AH   XDATA    BYTE      P12F
*SFR* 00000090H.3 DATA     BIT       P13
      0200812BH   XDATA    BYTE      P13C
      0200800BH   XDATA    BYTE      P13F
*SFR* 00000090H.4 DATA     BIT       P14
      0200812CH   XDATA    BYTE      P14C
      0200800CH   XDATA    BYTE      P14F
*SFR* 00000090H.5 DATA     BIT       P15
      0200812DH   XDATA    BYTE      P15C
      0200800DH   XDATA    BYTE      P15F
*SFR* 00000090H.6 DATA     BIT       P16
      0200812EH   XDATA    BYTE      P16C
      0200800EH   XDATA    BYTE      P16F
*SFR* 00000090H.7 DATA     BIT       P17
      0200812FH   XDATA    BYTE      P17C
      0200800FH   XDATA    BYTE      P17F
*SFR* 000000A0H   DATA     BYTE      P2
*SFR* 000000A0H.0 DATA     BIT       P20
      02008130H   XDATA    BYTE      P20C
      02008010H   XDATA    BYTE      P20F
*SFR* 000000B0H   DATA     BYTE      P3
*SFR* 000000B0H.0 DATA     BIT       P30
      02008138H   XDATA    BYTE      P30C
      02008018H   XDATA    BYTE      P30F
      0200FC04H   XDATA    BYTE      PADRD
*SFR* 00000087H   DATA     BYTE      PCON
*SFR* 000000B8H.4 DATA     BIT       PS0
*SFR* 000000B8H.6 DATA     BIT       PS1
*SFR* 000000D0H   DATA     BYTE      PSW
*SFR* 000000B8H.1 DATA     BIT       PT0
*SFR* 000000B8H.3 DATA     BIT       PT1
LX51 LINKER/LOCATER V4.66.87.0                                                        03/10/2021  11:45:25  PAGE 19


*SFR* 000000B8H.5 DATA     BIT       PT2
      0200FC06H   XDATA    BYTE      PTSH
      0200FC05H   XDATA    BYTE      PTSL
*SFR* 00000086H   DATA     BYTE      PWCON
*SFR* 000000D4H   DATA     BYTE      PWMAIF
      0200809DH   XDATA    BYTE      PWMBD
*SFR* 000000D5H   DATA     BYTE      PWMBIF
*SFR* 000000DEH   DATA     BYTE      PWMCFG
*SFR* 000000D6H   DATA     BYTE      PWMCIF
*SFR* 000000DCH   DATA     BYTE      PWMCMAX
*SFR* 000000DDH   DATA     BYTE      PWMCON
*SFR* 000000D7H   DATA     BYTE      PWMDIF
*SFR* 000000D1H   DATA     BYTE      PWMDIVH
*SFR* 000000DFH   DATA     BYTE      PWMDIVL
*SFR* 000000D3H   DATA     BYTE      PWMDUTH
*SFR* 000000D2H   DATA     BYTE      PWMDUTL
*SFR* 000000DAH   DATA     BYTE      PWMEN
      0200809AH   XDATA    BYTE      PWMFBC
      0200809BH   XDATA    BYTE      PWMFBS
      02008099H   XDATA    BYTE      PWMHS
      02008098H   XDATA    BYTE      PWMPS
      0200809CH   XDATA    BYTE      PWMSBC
*SFR* 000000DBH   DATA     BYTE      PWMUPD
*SFR* 000000B8H.0 DATA     BIT       PX0
*SFR* 000000B8H.2 DATA     BIT       PX1
      0200017FH   XDATA    BYTE      red_duty
      0200FC07H   XDATA    BYTE      REPSET
      0200009EH   XDATA    BYTE      reset_wifi_flag
      010009B4H   CODE     ---       RGB_Led_Breathing
      02000177H   XDATA    BYTE      rgb_pwm_div
*DEL*:00000000H   CODE     ---       RGB_Run
*SFR* 000000D0H.3 DATA     BIT       RS0
*SFR* 000000D0H.4 DATA     BIT       RS1
      020000EDH   XDATA    ---       rx_buf_in
      020000F0H   XDATA    ---       rx_buf_out
*SFR* 0000009BH   DATA     BYTE      S1BUF
*SFR* 0000009AH   DATA     BYTE      S1CON
*SFR* 0000009DH   DATA     BYTE      S1RELH
*SFR* 0000009CH   DATA     BYTE      S1RELL
*SFR* 000000A2H   DATA     BYTE      S2BUF
*SFR* 000000A1H   DATA     BYTE      S2CON
*SFR* 000000A4H   DATA     BYTE      S2RELH
*SFR* 000000A3H   DATA     BYTE      S2RELL
      02000188H   XDATA    BYTE      scan_long_key_timer
      0200007DH   XDATA    BYTE      set_wifimode_flag
      01002CB0H   CODE     ---       SHT30_Init
      02000166H   XDATA    BYTE      SHT30_Measure_Timeout
*SFR* 00000081H   DATA     BYTE      SP
*SFR* 000000A5H   DATA     BYTE      SPCON
*SFR* 000000A6H   DATA     BYTE      SPDAT
      02008100H   XDATA    BYTE      SPMAX
*SFR* 000000A7H   DATA     BYTE      SPSTA
      0200007EH   XDATA    BYTE      stop_update_flag
*SFR* 000000FFH   DATA     BYTE      STPSTH
*SFR* 000000FEH   DATA     BYTE      STPSTL
      020080B0H   XDATA    BYTE      SWICON
      020080B1H   XDATA    BYTE      SWIDAT
      020080B3H   XDATA    BYTE      SWIOVT
      020080B2H   XDATA    BYTE      SWISTA
*DEL*:00000000H   CODE     ---       Sys_Clk_Set_IRCH
*DEL*:00000000H   CODE     ---       Sys_Clk_Set_IRCL
*DEL*:00000000H   CODE     ---       Sys_Clk_Set_XCLK_IN
*DEL*:00000000H   CODE     ---       Sys_Clk_Set_XOSCH
*SFR* 000000CBH   DATA     BYTE      T2CH
*SFR* 000000CAH   DATA     BYTE      T2CL
LX51 LINKER/LOCATER V4.66.87.0                                                        03/10/2021  11:45:25  PAGE 20


*SFR* 000000C8H   DATA     BYTE      T2CON
      020080A1H   XDATA    BYTE      T2CPCHS
      020080A2H   XDATA    BYTE      T2CPF
      020080A4H   XDATA    BYTE      T2CPH
      020080A3H   XDATA    BYTE      T2CPL
      020080A0H   XDATA    BYTE      T2CPPS
*SFR* 000000C8H.3 DATA     BIT       T2IE
*SFR* 000000C9H   DATA     BYTE      T2MOD
*SFR* 000000C8H.0 DATA     BIT       T2P0
*SFR* 000000C8H.1 DATA     BIT       T2P1
*SFR* 000000C8H.4 DATA     BIT       T2R0
*SFR* 000000C8H.5 DATA     BIT       T2R1
      01002982H   CODE     ---       take_byte_rxbuff
*SFR* 00000088H   DATA     BYTE      TCON
*SFR* 00000088H.5 DATA     BIT       TF0
*SFR* 00000088H.7 DATA     BIT       TF1
*SFR* 000000C8H.7 DATA     BIT       TF2
*SFR* 0000008CH   DATA     BYTE      TH0
*SFR* 0000008DH   DATA     BYTE      TH1
*SFR* 000000CDH   DATA     BYTE      TH2
      0100001EH   CODE     ---       Timer0_Init
      01002A47H   CODE     ---       Timer0_ISR
      010031B0H   CODE     ---       Timer1_Init
      010019BAH   CODE     ---       Timer1_ISR
*SFR* 0000008AH   DATA     BYTE      TL0
*SFR* 0000008BH   DATA     BYTE      TL1
*SFR* 000000CCH   DATA     BYTE      TL2
      020080A8H   XDATA    BYTE      TMCON
*SFR* 00000089H   DATA     BYTE      TMOD
      020080A9H   XDATA    BYTE      TMSNU
      0200811FH   XDATA    BYTE      TPCTL
*SFR* 00000088H.4 DATA     BIT       TR0
*SFR* 00000088H.6 DATA     BIT       TR1
*SFR* 000000C8H.6 DATA     BIT       TR2
      020080F8H   XDATA    BYTE      TSCMD
      020080F9H   XDATA    BYTE      TSSTA
      020080FAH   XDATA    BYTE      TSSWC
      02000173H   XDATA    WORD      u16_gp_4ms_timer
      0100211FH   CODE     ---       UART1_ISR
      02000000H   XDATA    ---       uart1_rev
      02000002H   XDATA    ---       uart1_rx_buf
      0200007AH   XDATA    ---       uart1_send
      02000066H   XDATA    ---       uart1_tx_buf
      00000020H.6 BIT      BIT       uart1_tx_flag
      02000189H   XDATA    WORD      ucHumidity
*SFR* 000000C8H.2 DATA     BIT       UCKS
      02008118H   XDATA    BYTE      UDCKS1
      02008119H   XDATA    BYTE      UDCKS2
*SFR* 000000AAH   DATA     BYTE      WDCON
*SFR* 000000ABH   DATA     BYTE      WDFLG
*SFR* 000000ADH   DATA     BYTE      WDVTHH
*SFR* 000000ACH   DATA     BYTE      WDVTHL
      0200007FH   XDATA    ---       wifi_data_process_buf
      0100303EH   CODE     ---       wifi_protocol_init
      0200009FH   XDATA    ---       wifi_uart_rx_buf
      0100106DH   CODE     ---       wifi_uart_service
      020000B6H   XDATA    ---       wifi_uart_tx_buf
      020000F3H   XDATA    BYTE      wifi_work_state
      01001CF0H   CODE     ---       wifi_work_state_led
      01002D54H   CODE     ---       with_data_rxbuff



SYMBOL TABLE OF MODULE:  .\output\ca51f003 (MAIN)

LX51 LINKER/LOCATER V4.66.87.0                                                        03/10/2021  11:45:25  PAGE 21


      VALUE       REP       CLASS    TYPE      SYMBOL NAME
      ====================================================
      ---         MODULE    ---      ---       MAIN
      02008007H   PUBLIC    XDATA    BYTE      P07F
      0200800EH   PUBLIC    XDATA    BYTE      P16F
      020080C0H   PUBLIC    XDATA    BYTE      BZCON
      02008006H   PUBLIC    XDATA    BYTE      P06F
      0200800DH   PUBLIC    XDATA    BYTE      P15F
      020080F8H   PUBLIC    XDATA    BYTE      TSCMD
      02008005H   PUBLIC    XDATA    BYTE      P05F
      0200800CH   PUBLIC    XDATA    BYTE      P14F
      0200809DH   PUBLIC    XDATA    BYTE      PWMBD
      0200812FH   PUBLIC    XDATA    BYTE      P17C
      02008004H   PUBLIC    XDATA    BYTE      P04F
      0200800BH   PUBLIC    XDATA    BYTE      P13F
      02008127H   PUBLIC    XDATA    BYTE      P07C
      0200812EH   PUBLIC    XDATA    BYTE      P16C
      02008003H   PUBLIC    XDATA    BYTE      P03F
      0200800AH   PUBLIC    XDATA    BYTE      P12F
      02008018H   PUBLIC    XDATA    BYTE      P30F
      020080A1H   PUBLIC    XDATA    BYTE      T2CPCHS
      02008126H   PUBLIC    XDATA    BYTE      P06C
      0200812DH   PUBLIC    XDATA    BYTE      P15C
      02008002H   PUBLIC    XDATA    BYTE      P02F
      02008009H   PUBLIC    XDATA    BYTE      P11F
      02008010H   PUBLIC    XDATA    BYTE      P20F
      02008125H   PUBLIC    XDATA    BYTE      P05C
      0200812CH   PUBLIC    XDATA    BYTE      P14C
      02008001H   PUBLIC    XDATA    BYTE      P01F
      02008008H   PUBLIC    XDATA    BYTE      P10F
      02008124H   PUBLIC    XDATA    BYTE      P04C
      0200812BH   PUBLIC    XDATA    BYTE      P13C
      02008000H   PUBLIC    XDATA    BYTE      P00F
      02008123H   PUBLIC    XDATA    BYTE      P03C
      0200812AH   PUBLIC    XDATA    BYTE      P12C
      02008138H   PUBLIC    XDATA    BYTE      P30C
      02008122H   PUBLIC    XDATA    BYTE      P02C
      02008129H   PUBLIC    XDATA    BYTE      P11C
      02008130H   PUBLIC    XDATA    BYTE      P20C
      02008121H   PUBLIC    XDATA    BYTE      P01C
      02008128H   PUBLIC    XDATA    BYTE      P10C
      02008081H   PUBLIC    XDATA    BYTE      CKSEL
      02008120H   PUBLIC    XDATA    BYTE      P00C
      0200FC00H   PUBLIC    XDATA    BYTE      MECON
      0200FC02H   PUBLIC    XDATA    BYTE      FSDAT
      02008082H   PUBLIC    XDATA    BYTE      CKDIV
      02008080H   PUBLIC    XDATA    BYTE      CKCON
      020080B3H   PUBLIC    XDATA    BYTE      SWIOVT
      0200FC01H   PUBLIC    XDATA    BYTE      FSCMD
      0200FC04H   PUBLIC    XDATA    BYTE      PADRD
      0200808FH   PUBLIC    XDATA    BYTE      ADOPC
      020080A3H   PUBLIC    XDATA    BYTE      T2CPL
      020080DDH   PUBLIC    XDATA    BYTE      DCFCR
      020080A4H   PUBLIC    XDATA    BYTE      T2CPH
      020080A2H   PUBLIC    XDATA    BYTE      T2CPF
      020080B2H   PUBLIC    XDATA    BYTE      SWISTA
      02008094H   PUBLIC    XDATA    BYTE      ACPBC
      020080C3H   PUBLIC    XDATA    BYTE      BZDUTL
      020080B0H   PUBLIC    XDATA    BYTE      SWICON
      0200FC07H   PUBLIC    XDATA    BYTE      REPSET
      020080C4H   PUBLIC    XDATA    BYTE      BZDUTH
      0200809BH   PUBLIC    XDATA    BYTE      PWMFBS
      0200809CH   PUBLIC    XDATA    BYTE      PWMSBC
      020080B1H   PUBLIC    XDATA    BYTE      SWIDAT
      020080C1H   PUBLIC    XDATA    BYTE      BZDIVL
LX51 LINKER/LOCATER V4.66.87.0                                                        03/10/2021  11:45:25  PAGE 22


      020080DCH   PUBLIC    XDATA    BYTE      DCOVRL
      020080C2H   PUBLIC    XDATA    BYTE      BZDIVH
      020080DBH   PUBLIC    XDATA    BYTE      DCOVRH
      0200FC05H   PUBLIC    XDATA    BYTE      PTSL
      020080B9H   PUBLIC    XDATA    BYTE      AMPAOS
      0200809AH   PUBLIC    XDATA    BYTE      PWMFBC
      0200FC06H   PUBLIC    XDATA    BYTE      PTSH
      020080A0H   PUBLIC    XDATA    BYTE      T2CPPS
      02008085H   PUBLIC    XDATA    BYTE      ILCFGL
      0200808AH   PUBLIC    XDATA    BYTE      ACPDLL
      02008083H   PUBLIC    XDATA    BYTE      IHCFGL
      0200808BH   PUBLIC    XDATA    BYTE      ACPDLH
      0200808CH   PUBLIC    XDATA    BYTE      ACPDHL
      02008119H   PUBLIC    XDATA    BYTE      UDCKS2
      02008118H   PUBLIC    XDATA    BYTE      UDCKS1
      02008084H   PUBLIC    XDATA    BYTE      IHCFGH
      02008101H   PUBLIC    XDATA    BYTE      I2CIOS
      0200808DH   PUBLIC    XDATA    BYTE      ACPDHH
      0200FC03H   PUBLIC    XDATA    BYTE      LOCK
      02008088H   PUBLIC    XDATA    BYTE      ADCALL
      02008089H   PUBLIC    XDATA    BYTE      ADCALH
      020080D1H   PUBLIC    XDATA    BYTE      DCDS
      020080D0H   PUBLIC    XDATA    BYTE      DCCR
      02008098H   PUBLIC    XDATA    BYTE      PWMPS
      020080A9H   PUBLIC    XDATA    BYTE      TMSNU
      020080FAH   PUBLIC    XDATA    BYTE      TSSWC
      020080DAH   PUBLIC    XDATA    BYTE      DCB1LL
      020080D6H   PUBLIC    XDATA    BYTE      DCB0LL
      02008099H   PUBLIC    XDATA    BYTE      PWMHS
      020080F9H   PUBLIC    XDATA    BYTE      TSSTA
      020080D8H   PUBLIC    XDATA    BYTE      DCB1HL
      020080D9H   PUBLIC    XDATA    BYTE      DCB1LH
      020080D4H   PUBLIC    XDATA    BYTE      DCB0HL
      020080D5H   PUBLIC    XDATA    BYTE      DCB0LH
      020080D2H   PUBLIC    XDATA    BYTE      DCDB
      020080D7H   PUBLIC    XDATA    BYTE      DCB1HH
      020080D3H   PUBLIC    XDATA    BYTE      DCB0HH
      02008100H   PUBLIC    XDATA    BYTE      SPMAX
      0200811FH   PUBLIC    XDATA    BYTE      TPCTL
      020080A8H   PUBLIC    XDATA    BYTE      TMCON
      0200800FH   PUBLIC    XDATA    BYTE      P17F
      0200811EH   PUBLIC    XDATA    BYTE      FTCTL
      0100311EH   PUBLIC    CODE     ---       main
      00000080H   SFRSYM    DATA     BYTE      P0
      00000090H   SFRSYM    DATA     BYTE      P1
      000000A0H   SFRSYM    DATA     BYTE      P2
      000000B0H   SFRSYM    DATA     BYTE      P3
      000000D0H.6 SFRSYM    DATA     BIT       AC
      000000A5H   SFRSYM    DATA     BYTE      SPCON
      000000A8H.7 SFRSYM    DATA     BIT       EA
      000000C8H.0 SFRSYM    DATA     BIT       T2P0
      000000C8H.1 SFRSYM    DATA     BIT       T2P1
      000000C8H.4 SFRSYM    DATA     BIT       T2R0
      000000DAH   SFRSYM    DATA     BYTE      PWMEN
      00000086H   SFRSYM    DATA     BYTE      PWCON
      000000C8H.5 SFRSYM    DATA     BIT       T2R1
      000000A7H   SFRSYM    DATA     BYTE      SPSTA
      00000083H   SFRSYM    DATA     BYTE      DP0H
      000000A8H   SFRSYM    DATA     BYTE      IE
      00000085H   SFRSYM    DATA     BYTE      DP1H
      00000082H   SFRSYM    DATA     BYTE      DP0L
      000000CBH   SFRSYM    DATA     BYTE      T2CH
      000000B3H   SFRSYM    DATA     BYTE      I2CADM
      00000084H   SFRSYM    DATA     BYTE      DP1L
      000000C8H.3 SFRSYM    DATA     BIT       T2IE
LX51 LINKER/LOCATER V4.66.87.0                                                        03/10/2021  11:45:25  PAGE 23


      000000CAH   SFRSYM    DATA     BYTE      T2CL
      000000B2H   SFRSYM    DATA     BYTE      I2CADR
      000000B8H   SFRSYM    DATA     BYTE      IP
      000000B7H   SFRSYM    DATA     BYTE      I2CFLG
      000000B5H   SFRSYM    DATA     BYTE      I2CDAT
      000000D0H.7 SFRSYM    DATA     BIT       CY
      000000BBH   SFRSYM    DATA     BYTE      ADCFGH
      000000DCH   SFRSYM    DATA     BYTE      PWMCMAX
      000000B1H   SFRSYM    DATA     BYTE      I2CCON
      000000D1H   SFRSYM    DATA     BYTE      PWMDIVH
      000000BAH   SFRSYM    DATA     BYTE      ADCFGL
      00000081H   SFRSYM    DATA     BYTE      SP
      000000F9H   SFRSYM    DATA     BYTE      EPIE
      000000D0H.2 SFRSYM    DATA     BIT       OV
      000000FAH   SFRSYM    DATA     BYTE      EPIF
      000000DFH   SFRSYM    DATA     BYTE      PWMDIVL
      000000B6H   SFRSYM    DATA     BYTE      I2CSTA
      000000E8H   SFRSYM    DATA     BYTE      EXIE
      000000D3H   SFRSYM    DATA     BYTE      PWMDUTH
      0000008FH   SFRSYM    DATA     BYTE      IT0CON
      00000080H.0 SFRSYM    DATA     BIT       P00
      000000D2H   SFRSYM    DATA     BYTE      PWMDUTL
      0000008EH   SFRSYM    DATA     BYTE      IT1CON
      00000090H.0 SFRSYM    DATA     BIT       P10
      00000080H.1 SFRSYM    DATA     BIT       P01
      0000009DH   SFRSYM    DATA     BYTE      S1RELH
      00000087H   SFRSYM    DATA     BYTE      PCON
      000000A0H.0 SFRSYM    DATA     BIT       P20
      00000090H.1 SFRSYM    DATA     BIT       P11
      00000080H.2 SFRSYM    DATA     BIT       P02
      000000E8H.0 SFRSYM    DATA     BIT       INT2EN
      000000A4H   SFRSYM    DATA     BYTE      S2RELH
      000000B0H.0 SFRSYM    DATA     BIT       P30
      00000090H.2 SFRSYM    DATA     BIT       P12
      00000080H.3 SFRSYM    DATA     BIT       P03
      000000E8H.1 SFRSYM    DATA     BIT       INT3EN
      00000090H.3 SFRSYM    DATA     BIT       P13
      00000080H.4 SFRSYM    DATA     BIT       P04
      000000E8H.2 SFRSYM    DATA     BIT       INT4EN
      00000090H.4 SFRSYM    DATA     BIT       P14
      00000080H.5 SFRSYM    DATA     BIT       P05
      000000E8H.3 SFRSYM    DATA     BIT       INT5EN
      0000009CH   SFRSYM    DATA     BYTE      S1RELL
      00000089H   SFRSYM    DATA     BYTE      TMOD
      00000088H   SFRSYM    DATA     BYTE      TCON
      00000090H.5 SFRSYM    DATA     BIT       P15
      00000080H.6 SFRSYM    DATA     BIT       P06
      000000E8H.4 SFRSYM    DATA     BIT       INT6EN
      000000A3H   SFRSYM    DATA     BYTE      S2RELL
      00000090H.6 SFRSYM    DATA     BIT       P16
      00000080H.7 SFRSYM    DATA     BIT       P07
      000000E8H.5 SFRSYM    DATA     BIT       INT7EN
      000000C8H.2 SFRSYM    DATA     BIT       UCKS
      000000F8H   SFRSYM    DATA     BYTE      EXIP
      00000090H.7 SFRSYM    DATA     BIT       P17
      000000E8H.6 SFRSYM    DATA     BIT       INT8EN
      000000E8H.7 SFRSYM    DATA     BIT       INT9EN
      00000088H.1 SFRSYM    DATA     BIT       IE0
      00000088H.3 SFRSYM    DATA     BIT       IE1
      000000F0H   SFRSYM    DATA     BYTE      B
      000000E7H   SFRSYM    DATA     BYTE      MDUDAT
      000000DEH   SFRSYM    DATA     BYTE      PWMCFG
      000000D4H   SFRSYM    DATA     BYTE      PWMAIF
      000000E0H   SFRSYM    DATA     BYTE      ACC
      000000D5H   SFRSYM    DATA     BYTE      PWMBIF
LX51 LINKER/LOCATER V4.66.87.0                                                        03/10/2021  11:45:25  PAGE 24


      000000A8H.4 SFRSYM    DATA     BIT       ES0
      000000EFH   SFRSYM    DATA     BYTE      LVDCON
      000000E6H   SFRSYM    DATA     BYTE      MDUCON
      000000D6H   SFRSYM    DATA     BYTE      PWMCIF
      000000A8H.1 SFRSYM    DATA     BIT       ET0
      000000A8H.6 SFRSYM    DATA     BIT       ES1
      000000D7H   SFRSYM    DATA     BYTE      PWMDIF
      000000A8H.3 SFRSYM    DATA     BIT       ET1
      00000088H.5 SFRSYM    DATA     BIT       TF0
      000000FDH   SFRSYM    DATA     BYTE      IDLSTH
      000000A8H.5 SFRSYM    DATA     BIT       ET2
      00000088H.7 SFRSYM    DATA     BIT       TF1
      000000C8H.7 SFRSYM    DATA     BIT       TF2
      0000008CH   SFRSYM    DATA     BYTE      TH0
      000000A8H.0 SFRSYM    DATA     BIT       EX0
      00000088H.0 SFRSYM    DATA     BIT       IT0
      0000008DH   SFRSYM    DATA     BYTE      TH1
      000000A8H.2 SFRSYM    DATA     BIT       EX1
      00000088H.2 SFRSYM    DATA     BIT       IT1
      000000FCH   SFRSYM    DATA     BYTE      IDLSTL
      000000CDH   SFRSYM    DATA     BYTE      TH2
      000000D0H.0 SFRSYM    DATA     BIT       P
      0000008AH   SFRSYM    DATA     BYTE      TL0
      0000008BH   SFRSYM    DATA     BYTE      TL1
      000000CCH   SFRSYM    DATA     BYTE      TL2
      000000B8H.4 SFRSYM    DATA     BIT       PS0
      000000B8H.1 SFRSYM    DATA     BIT       PT0
      000000B8H.6 SFRSYM    DATA     BIT       PS1
      000000B4H   SFRSYM    DATA     BYTE      I2CCR
      000000B8H.3 SFRSYM    DATA     BIT       PT1
      000000D0H.3 SFRSYM    DATA     BIT       RS0
      000000BDH   SFRSYM    DATA     BYTE      ADCDH
      000000B8H.5 SFRSYM    DATA     BIT       PT2
      00000088H.4 SFRSYM    DATA     BIT       TR0
      000000D0H.4 SFRSYM    DATA     BIT       RS1
      000000DDH   SFRSYM    DATA     BYTE      PWMCON
      00000088H.6 SFRSYM    DATA     BIT       TR1
      000000ADH   SFRSYM    DATA     BYTE      WDVTHH
      000000C8H.6 SFRSYM    DATA     BIT       TR2
      000000B8H.0 SFRSYM    DATA     BIT       PX0
      000000B8H.2 SFRSYM    DATA     BIT       PX1
      000000BCH   SFRSYM    DATA     BYTE      ADCDL
      000000ACH   SFRSYM    DATA     BYTE      WDVTHL
      000000DBH   SFRSYM    DATA     BYTE      PWMUPD
      0000009BH   SFRSYM    DATA     BYTE      S1BUF
      000000A2H   SFRSYM    DATA     BYTE      S2BUF
      0000009AH   SFRSYM    DATA     BYTE      S1CON
      000000B9H   SFRSYM    DATA     BYTE      ADCON
      000000A1H   SFRSYM    DATA     BYTE      S2CON
      000000D0H.1 SFRSYM    DATA     BIT       DPS
      000000C9H   SFRSYM    DATA     BYTE      T2MOD
      000000C8H   SFRSYM    DATA     BYTE      T2CON
      000000FFH   SFRSYM    DATA     BYTE      STPSTH
      000000FEH   SFRSYM    DATA     BYTE      STPSTL
      000000D0H.5 SFRSYM    DATA     BIT       F0
      000000ABH   SFRSYM    DATA     BYTE      WDFLG
      000000FBH   SFRSYM    DATA     BYTE      EPCON
      000000F7H   SFRSYM    DATA     BYTE      INDEX
      000000D0H   SFRSYM    DATA     BYTE      PSW
      000000AAH   SFRSYM    DATA     BYTE      WDCON
      000000A6H   SFRSYM    DATA     BYTE      SPDAT

      0100311EH   BLOCK     CODE     ---       LVL=0
      0100311EH   LINE      CODE     ---       #9
      0100311EH   LINE      CODE     ---       #10
LX51 LINKER/LOCATER V4.66.87.0                                                        03/10/2021  11:45:25  PAGE 25


      0100311EH   LINE      CODE     ---       #12
      01003129H   LINE      CODE     ---       #19
      0100312BH   LINE      CODE     ---       #22
      0100312EH   LINE      CODE     ---       #24
      0100312EH   LINE      CODE     ---       #25
      0100312EH   LINE      CODE     ---       #26
      01003131H   LINE      CODE     ---       #27
      01003134H   LINE      CODE     ---       #29
      01003137H   LINE      CODE     ---       #30
      0100313AH   LINE      CODE     ---       #38
      0100313DH   LINE      CODE     ---       #39
      ---         BLOCKEND  ---      ---       LVL=0

      ---         MODULE    ---      ---       UART
      0200007AH   PUBLIC    XDATA    ---       uart1_send
      02000066H   PUBLIC    XDATA    ---       uart1_tx_buf
      02000002H   PUBLIC    XDATA    ---       uart1_rx_buf
      00000020H.6 PUBLIC    BIT      BIT       uart1_tx_flag
      02000000H   PUBLIC    XDATA    ---       uart1_rev
      01003D44H   PUBLIC    CONST    ---       BR_SET_TAB
      01003D24H   PUBLIC    CONST    ---       BR_TAB
      0100211FH   PUBLIC    CODE     ---       UART1_ISR
      010028B0H   PUBLIC    CODE     ---       _Uart1_PutChar
      01001FBEH   PUBLIC    CODE     ---       _Uart1_Initial
      00000080H   SFRSYM    DATA     BYTE      P0
      00000090H   SFRSYM    DATA     BYTE      P1
      000000A0H   SFRSYM    DATA     BYTE      P2
      000000B0H   SFRSYM    DATA     BYTE      P3
      000000D0H.6 SFRSYM    DATA     BIT       AC
      000000A5H   SFRSYM    DATA     BYTE      SPCON
      000000A8H.7 SFRSYM    DATA     BIT       EA
      000000C8H.0 SFRSYM    DATA     BIT       T2P0
      000000C8H.1 SFRSYM    DATA     BIT       T2P1
      000000C8H.4 SFRSYM    DATA     BIT       T2R0
      000000DAH   SFRSYM    DATA     BYTE      PWMEN
      00000086H   SFRSYM    DATA     BYTE      PWCON
      000000C8H.5 SFRSYM    DATA     BIT       T2R1
      000000A7H   SFRSYM    DATA     BYTE      SPSTA
      00000083H   SFRSYM    DATA     BYTE      DP0H
      000000A8H   SFRSYM    DATA     BYTE      IE
      00000085H   SFRSYM    DATA     BYTE      DP1H
      00000082H   SFRSYM    DATA     BYTE      DP0L
      000000CBH   SFRSYM    DATA     BYTE      T2CH
      000000B3H   SFRSYM    DATA     BYTE      I2CADM
      00000084H   SFRSYM    DATA     BYTE      DP1L
      000000C8H.3 SFRSYM    DATA     BIT       T2IE
      000000CAH   SFRSYM    DATA     BYTE      T2CL
      000000B2H   SFRSYM    DATA     BYTE      I2CADR
      000000B8H   SFRSYM    DATA     BYTE      IP
      000000B7H   SFRSYM    DATA     BYTE      I2CFLG
      000000B5H   SFRSYM    DATA     BYTE      I2CDAT
      000000D0H.7 SFRSYM    DATA     BIT       CY
      000000BBH   SFRSYM    DATA     BYTE      ADCFGH
      000000DCH   SFRSYM    DATA     BYTE      PWMCMAX
      000000B1H   SFRSYM    DATA     BYTE      I2CCON
      000000D1H   SFRSYM    DATA     BYTE      PWMDIVH
      000000BAH   SFRSYM    DATA     BYTE      ADCFGL
      00000081H   SFRSYM    DATA     BYTE      SP
      000000F9H   SFRSYM    DATA     BYTE      EPIE
      000000D0H.2 SFRSYM    DATA     BIT       OV
      000000FAH   SFRSYM    DATA     BYTE      EPIF
      000000DFH   SFRSYM    DATA     BYTE      PWMDIVL
      000000B6H   SFRSYM    DATA     BYTE      I2CSTA
      000000E8H   SFRSYM    DATA     BYTE      EXIE
      000000D3H   SFRSYM    DATA     BYTE      PWMDUTH
LX51 LINKER/LOCATER V4.66.87.0                                                        03/10/2021  11:45:25  PAGE 26


      0000008FH   SFRSYM    DATA     BYTE      IT0CON
      00000080H.0 SFRSYM    DATA     BIT       P00
      000000D2H   SFRSYM    DATA     BYTE      PWMDUTL
      0000008EH   SFRSYM    DATA     BYTE      IT1CON
      00000090H.0 SFRSYM    DATA     BIT       P10
      00000080H.1 SFRSYM    DATA     BIT       P01
      0000009DH   SFRSYM    DATA     BYTE      S1RELH
      00000087H   SFRSYM    DATA     BYTE      PCON
      000000A0H.0 SFRSYM    DATA     BIT       P20
      00000090H.1 SFRSYM    DATA     BIT       P11
      00000080H.2 SFRSYM    DATA     BIT       P02
      000000E8H.0 SFRSYM    DATA     BIT       INT2EN
      000000A4H   SFRSYM    DATA     BYTE      S2RELH
      000000B0H.0 SFRSYM    DATA     BIT       P30
      00000090H.2 SFRSYM    DATA     BIT       P12
      00000080H.3 SFRSYM    DATA     BIT       P03
      000000E8H.1 SFRSYM    DATA     BIT       INT3EN
      00000090H.3 SFRSYM    DATA     BIT       P13
      00000080H.4 SFRSYM    DATA     BIT       P04
      000000E8H.2 SFRSYM    DATA     BIT       INT4EN
      00000090H.4 SFRSYM    DATA     BIT       P14
      00000080H.5 SFRSYM    DATA     BIT       P05
      000000E8H.3 SFRSYM    DATA     BIT       INT5EN
      0000009CH   SFRSYM    DATA     BYTE      S1RELL
      00000089H   SFRSYM    DATA     BYTE      TMOD
      00000088H   SFRSYM    DATA     BYTE      TCON
      00000090H.5 SFRSYM    DATA     BIT       P15
      00000080H.6 SFRSYM    DATA     BIT       P06
      000000E8H.4 SFRSYM    DATA     BIT       INT6EN
      000000A3H   SFRSYM    DATA     BYTE      S2RELL
      00000090H.6 SFRSYM    DATA     BIT       P16
      00000080H.7 SFRSYM    DATA     BIT       P07
      000000E8H.5 SFRSYM    DATA     BIT       INT7EN
      000000C8H.2 SFRSYM    DATA     BIT       UCKS
      000000F8H   SFRSYM    DATA     BYTE      EXIP
      00000090H.7 SFRSYM    DATA     BIT       P17
      000000E8H.6 SFRSYM    DATA     BIT       INT8EN
      000000E8H.7 SFRSYM    DATA     BIT       INT9EN
      00000088H.1 SFRSYM    DATA     BIT       IE0
      00000088H.3 SFRSYM    DATA     BIT       IE1
      000000F0H   SFRSYM    DATA     BYTE      B
      000000E7H   SFRSYM    DATA     BYTE      MDUDAT
      000000DEH   SFRSYM    DATA     BYTE      PWMCFG
      000000D4H   SFRSYM    DATA     BYTE      PWMAIF
      000000E0H   SFRSYM    DATA     BYTE      ACC
      000000D5H   SFRSYM    DATA     BYTE      PWMBIF
      000000A8H.4 SFRSYM    DATA     BIT       ES0
      000000EFH   SFRSYM    DATA     BYTE      LVDCON
      000000E6H   SFRSYM    DATA     BYTE      MDUCON
      000000D6H   SFRSYM    DATA     BYTE      PWMCIF
      000000A8H.1 SFRSYM    DATA     BIT       ET0
      000000A8H.6 SFRSYM    DATA     BIT       ES1
      000000D7H   SFRSYM    DATA     BYTE      PWMDIF
      000000A8H.3 SFRSYM    DATA     BIT       ET1
      00000088H.5 SFRSYM    DATA     BIT       TF0
      000000FDH   SFRSYM    DATA     BYTE      IDLSTH
      000000A8H.5 SFRSYM    DATA     BIT       ET2
      00000088H.7 SFRSYM    DATA     BIT       TF1
      000000C8H.7 SFRSYM    DATA     BIT       TF2
      0000008CH   SFRSYM    DATA     BYTE      TH0
      000000A8H.0 SFRSYM    DATA     BIT       EX0
      00000088H.0 SFRSYM    DATA     BIT       IT0
      0000008DH   SFRSYM    DATA     BYTE      TH1
      000000A8H.2 SFRSYM    DATA     BIT       EX1
      00000088H.2 SFRSYM    DATA     BIT       IT1
LX51 LINKER/LOCATER V4.66.87.0                                                        03/10/2021  11:45:25  PAGE 27


      000000FCH   SFRSYM    DATA     BYTE      IDLSTL
      000000CDH   SFRSYM    DATA     BYTE      TH2
      000000D0H.0 SFRSYM    DATA     BIT       P
      0000008AH   SFRSYM    DATA     BYTE      TL0
      0000008BH   SFRSYM    DATA     BYTE      TL1
      000000CCH   SFRSYM    DATA     BYTE      TL2
      000000B8H.4 SFRSYM    DATA     BIT       PS0
      000000B8H.1 SFRSYM    DATA     BIT       PT0
      000000B8H.6 SFRSYM    DATA     BIT       PS1
      000000B4H   SFRSYM    DATA     BYTE      I2CCR
      000000B8H.3 SFRSYM    DATA     BIT       PT1
      000000D0H.3 SFRSYM    DATA     BIT       RS0
      000000BDH   SFRSYM    DATA     BYTE      ADCDH
      000000B8H.5 SFRSYM    DATA     BIT       PT2
      00000088H.4 SFRSYM    DATA     BIT       TR0
      000000D0H.4 SFRSYM    DATA     BIT       RS1
      000000DDH   SFRSYM    DATA     BYTE      PWMCON
      00000088H.6 SFRSYM    DATA     BIT       TR1
      000000ADH   SFRSYM    DATA     BYTE      WDVTHH
      000000C8H.6 SFRSYM    DATA     BIT       TR2
      000000B8H.0 SFRSYM    DATA     BIT       PX0
      000000B8H.2 SFRSYM    DATA     BIT       PX1
      000000BCH   SFRSYM    DATA     BYTE      ADCDL
      000000ACH   SFRSYM    DATA     BYTE      WDVTHL
      000000DBH   SFRSYM    DATA     BYTE      PWMUPD
      0000009BH   SFRSYM    DATA     BYTE      S1BUF
      000000A2H   SFRSYM    DATA     BYTE      S2BUF
      0000009AH   SFRSYM    DATA     BYTE      S1CON
      000000B9H   SFRSYM    DATA     BYTE      ADCON
      000000A1H   SFRSYM    DATA     BYTE      S2CON
      000000D0H.1 SFRSYM    DATA     BIT       DPS
      000000C9H   SFRSYM    DATA     BYTE      T2MOD
      000000C8H   SFRSYM    DATA     BYTE      T2CON
      000000FFH   SFRSYM    DATA     BYTE      STPSTH
      000000FEH   SFRSYM    DATA     BYTE      STPSTL
      000000D0H.5 SFRSYM    DATA     BIT       F0
      000000ABH   SFRSYM    DATA     BYTE      WDFLG
      000000FBH   SFRSYM    DATA     BYTE      EPCON
      000000F7H   SFRSYM    DATA     BYTE      INDEX
      000000D0H   SFRSYM    DATA     BYTE      PSW
      000000AAH   SFRSYM    DATA     BYTE      WDCON
      000000A6H   SFRSYM    DATA     BYTE      SPDAT

      01001FBEH   BLOCK     CODE     ---       LVL=0
      020000F5H   SYMBOL    XDATA    DWORD     baudrate
      01001FC4H   BLOCK     CODE     NEAR LAB  LVL=1
      020000F9H   SYMBOL    XDATA    WORD      value_temp
      020000FBH   SYMBOL    XDATA    BYTE      i
      ---         BLOCKEND  ---      ---       LVL=1
      01001FBEH   LINE      CODE     ---       #42
      01001FC4H   LINE      CODE     ---       #43
      01001FC4H   LINE      CODE     ---       #48
      01001FC9H   LINE      CODE     ---       #49
      01001FCBH   LINE      CODE     ---       #50
      01001FCFH   LINE      CODE     ---       #51
      01001FD1H   LINE      CODE     ---       #52
      01001FD3H   LINE      CODE     ---       #54
      01001FE1H   LINE      CODE     ---       #55
      01001FE1H   LINE      CODE     ---       #56
      01002006H   LINE      CODE     ---       #57
      01002006H   LINE      CODE     ---       #58
      0100202DH   LINE      CODE     ---       #59
      01002044H   LINE      CODE     ---       #60
      01002046H   LINE      CODE     ---       #61
      01002046H   LINE      CODE     ---       #62
LX51 LINKER/LOCATER V4.66.87.0                                                        03/10/2021  11:45:25  PAGE 28


      0100204EH   LINE      CODE     ---       #63
      01002056H   LINE      CODE     ---       #65
      0100205CH   LINE      CODE     ---       #66
      01002060H   LINE      CODE     ---       #68
      0100206BH   LINE      CODE     ---       #69
      0100206DH   LINE      CODE     ---       #71
      01002070H   LINE      CODE     ---       #72
      01002072H   LINE      CODE     ---       #73
      ---         BLOCKEND  ---      ---       LVL=0

      010028B0H   BLOCK     CODE     ---       LVL=0
      00000007H   SYMBOL    DATA     BYTE      bdat
      010028B0H   BLOCK     CODE     NEAR LAB  LVL=1
      00000006H   SYMBOL    DATA     BYTE      free_space
      00000005H   SYMBOL    DATA     BYTE      tail_tmp
      ---         BLOCKEND  ---      ---       LVL=1
      010028B0H   LINE      CODE     ---       #74
      010028B0H   LINE      CODE     ---       #75
      010028B0H   LINE      CODE     ---       #78
      010028B0H   LINE      CODE     ---       #79
      010028B0H   LINE      CODE     ---       #80
      010028B5H   LINE      CODE     ---       #81
      010028BEH   LINE      CODE     ---       #82
      010028BEH   LINE      CODE     ---       #83
      010028C2H   LINE      CODE     ---       #84
      010028C4H   LINE      CODE     ---       #86
      010028C4H   LINE      CODE     ---       #87
      010028D1H   LINE      CODE     ---       #88
      010028D1H   LINE      CODE     ---       #89
      010028D7H   LINE      CODE     ---       #90
      010028D7H   LINE      CODE     ---       #91
      010028D9H   LINE      CODE     ---       #92
      010028DFH   LINE      CODE     ---       #93
      010028E7H   LINE      CODE     ---       #94
      010028F3H   LINE      CODE     ---       #95
      010028F6H   LINE      CODE     ---       #96
      010028F6H   LINE      CODE     ---       #97
      010028F8H   LINE      CODE     ---       #98
      010028FEH   LINE      CODE     ---       #99
      01002906H   LINE      CODE     ---       #100
      01002913H   LINE      CODE     ---       #101
      01002915H   LINE      CODE     ---       #102
      01002916H   LINE      CODE     ---       #104
      01002916H   LINE      CODE     ---       #105
      01002918H   LINE      CODE     ---       #106
      01002918H   LINE      CODE     ---       #107
      01002918H   LINE      CODE     ---       #108
      01002918H   LINE      CODE     ---       #109
      01002918H   LINE      CODE     ---       #110
      ---         BLOCKEND  ---      ---       LVL=0

      0100211FH   BLOCK     CODE     ---       LVL=0
      0100213CH   BLOCK     CODE     NEAR LAB  LVL=1
      00000007H   SYMBOL    DATA     BYTE      res
      ---         BLOCKEND  ---      ---       LVL=1
      0100211FH   LINE      CODE     ---       #111
      0100213CH   LINE      CODE     ---       #114
      01002141H   LINE      CODE     ---       #115
      01002141H   LINE      CODE     ---       #116
      01002149H   LINE      CODE     ---       #117
      0100214FH   LINE      CODE     ---       #118
      01002157H   LINE      CODE     ---       #119
      01002165H   LINE      CODE     ---       #120
      01002171H   LINE      CODE     ---       #121
      01002174H   LINE      CODE     ---       #122
LX51 LINKER/LOCATER V4.66.87.0                                                        03/10/2021  11:45:25  PAGE 29


      01002174H   LINE      CODE     ---       #123
      01002179H   LINE      CODE     ---       #124
      01002179H   LINE      CODE     ---       #125
      01002181H   LINE      CODE     ---       #126
      0100218DH   LINE      CODE     ---       #127
      0100218DH   LINE      CODE     ---       #128
      01002191H   LINE      CODE     ---       #129
      01002199H   LINE      CODE     ---       #130
      010021A6H   LINE      CODE     ---       #131
      010021A8H   LINE      CODE     ---       #133
      010021A8H   LINE      CODE     ---       #134
      010021AAH   LINE      CODE     ---       #135
      010021AAH   LINE      CODE     ---       #136
      010021AAH   LINE      CODE     ---       #137
      ---         BLOCKEND  ---      ---       LVL=0

      ---         MODULE    ---      ---       DELAY
      0100321EH   PUBLIC    CODE     ---       _Delay_us
      00000006H   SYMBOL    DATA     WORD      n
      00000005H   SYMBOL    DATA     BYTE      i

      0100321EH   BLOCK     CODE     ---       LVL=0
      00000006H   SYMBOL    DATA     WORD      n
      0100321EH   LINE      CODE     ---       #21
      0100321EH   LINE      CODE     ---       #22
      0100321EH   LINE      CODE     ---       #23
      01003228H   LINE      CODE     ---       #24
      01003228H   LINE      CODE     ---       #25
      01003229H   LINE      CODE     ---       #26
      0100322BH   LINE      CODE     ---       #27
      ---         BLOCKEND  ---      ---       LVL=0

      ---         MODULE    ---      ---       SYSTEM_CLOCK
      00000080H   SFRSYM    DATA     BYTE      P0
      00000090H   SFRSYM    DATA     BYTE      P1
      000000A0H   SFRSYM    DATA     BYTE      P2
      000000B0H   SFRSYM    DATA     BYTE      P3
      000000D0H.6 SFRSYM    DATA     BIT       AC
      000000A5H   SFRSYM    DATA     BYTE      SPCON
      000000A8H.7 SFRSYM    DATA     BIT       EA
      000000C8H.0 SFRSYM    DATA     BIT       T2P0
      000000C8H.1 SFRSYM    DATA     BIT       T2P1
      000000C8H.4 SFRSYM    DATA     BIT       T2R0
      000000DAH   SFRSYM    DATA     BYTE      PWMEN
      00000086H   SFRSYM    DATA     BYTE      PWCON
      000000C8H.5 SFRSYM    DATA     BIT       T2R1
      000000A7H   SFRSYM    DATA     BYTE      SPSTA
      00000083H   SFRSYM    DATA     BYTE      DP0H
      000000A8H   SFRSYM    DATA     BYTE      IE
      00000085H   SFRSYM    DATA     BYTE      DP1H
      00000082H   SFRSYM    DATA     BYTE      DP0L
      000000CBH   SFRSYM    DATA     BYTE      T2CH
      000000B3H   SFRSYM    DATA     BYTE      I2CADM
      00000084H   SFRSYM    DATA     BYTE      DP1L
      000000C8H.3 SFRSYM    DATA     BIT       T2IE
      000000CAH   SFRSYM    DATA     BYTE      T2CL
      000000B2H   SFRSYM    DATA     BYTE      I2CADR
      000000B8H   SFRSYM    DATA     BYTE      IP
      000000B7H   SFRSYM    DATA     BYTE      I2CFLG
      000000B5H   SFRSYM    DATA     BYTE      I2CDAT
      000000D0H.7 SFRSYM    DATA     BIT       CY
      000000BBH   SFRSYM    DATA     BYTE      ADCFGH
      000000DCH   SFRSYM    DATA     BYTE      PWMCMAX
      000000B1H   SFRSYM    DATA     BYTE      I2CCON
      000000D1H   SFRSYM    DATA     BYTE      PWMDIVH
LX51 LINKER/LOCATER V4.66.87.0                                                        03/10/2021  11:45:25  PAGE 30


      000000BAH   SFRSYM    DATA     BYTE      ADCFGL
      00000081H   SFRSYM    DATA     BYTE      SP
      000000F9H   SFRSYM    DATA     BYTE      EPIE
      000000D0H.2 SFRSYM    DATA     BIT       OV
      000000FAH   SFRSYM    DATA     BYTE      EPIF
      000000DFH   SFRSYM    DATA     BYTE      PWMDIVL
      000000B6H   SFRSYM    DATA     BYTE      I2CSTA
      000000E8H   SFRSYM    DATA     BYTE      EXIE
      000000D3H   SFRSYM    DATA     BYTE      PWMDUTH
      0000008FH   SFRSYM    DATA     BYTE      IT0CON
      00000080H.0 SFRSYM    DATA     BIT       P00
      000000D2H   SFRSYM    DATA     BYTE      PWMDUTL
      0000008EH   SFRSYM    DATA     BYTE      IT1CON
      00000090H.0 SFRSYM    DATA     BIT       P10
      00000080H.1 SFRSYM    DATA     BIT       P01
      0000009DH   SFRSYM    DATA     BYTE      S1RELH
      00000087H   SFRSYM    DATA     BYTE      PCON
      000000A0H.0 SFRSYM    DATA     BIT       P20
      00000090H.1 SFRSYM    DATA     BIT       P11
      00000080H.2 SFRSYM    DATA     BIT       P02
      000000E8H.0 SFRSYM    DATA     BIT       INT2EN
      000000A4H   SFRSYM    DATA     BYTE      S2RELH
      000000B0H.0 SFRSYM    DATA     BIT       P30
      00000090H.2 SFRSYM    DATA     BIT       P12
      00000080H.3 SFRSYM    DATA     BIT       P03
      000000E8H.1 SFRSYM    DATA     BIT       INT3EN
      00000090H.3 SFRSYM    DATA     BIT       P13
      00000080H.4 SFRSYM    DATA     BIT       P04
      000000E8H.2 SFRSYM    DATA     BIT       INT4EN
      00000090H.4 SFRSYM    DATA     BIT       P14
      00000080H.5 SFRSYM    DATA     BIT       P05
      000000E8H.3 SFRSYM    DATA     BIT       INT5EN
      0000009CH   SFRSYM    DATA     BYTE      S1RELL
      00000089H   SFRSYM    DATA     BYTE      TMOD
      00000088H   SFRSYM    DATA     BYTE      TCON
      00000090H.5 SFRSYM    DATA     BIT       P15
      00000080H.6 SFRSYM    DATA     BIT       P06
      000000E8H.4 SFRSYM    DATA     BIT       INT6EN
      000000A3H   SFRSYM    DATA     BYTE      S2RELL
      00000090H.6 SFRSYM    DATA     BIT       P16
      00000080H.7 SFRSYM    DATA     BIT       P07
      000000E8H.5 SFRSYM    DATA     BIT       INT7EN
      000000C8H.2 SFRSYM    DATA     BIT       UCKS
      000000F8H   SFRSYM    DATA     BYTE      EXIP
      00000090H.7 SFRSYM    DATA     BIT       P17
      000000E8H.6 SFRSYM    DATA     BIT       INT8EN
      000000E8H.7 SFRSYM    DATA     BIT       INT9EN
      00000088H.1 SFRSYM    DATA     BIT       IE0
      00000088H.3 SFRSYM    DATA     BIT       IE1
      000000F0H   SFRSYM    DATA     BYTE      B
      000000E7H   SFRSYM    DATA     BYTE      MDUDAT
      000000DEH   SFRSYM    DATA     BYTE      PWMCFG
      000000D4H   SFRSYM    DATA     BYTE      PWMAIF
      000000E0H   SFRSYM    DATA     BYTE      ACC
      000000D5H   SFRSYM    DATA     BYTE      PWMBIF
      000000A8H.4 SFRSYM    DATA     BIT       ES0
      000000EFH   SFRSYM    DATA     BYTE      LVDCON
      000000E6H   SFRSYM    DATA     BYTE      MDUCON
      000000D6H   SFRSYM    DATA     BYTE      PWMCIF
      000000A8H.1 SFRSYM    DATA     BIT       ET0
      000000A8H.6 SFRSYM    DATA     BIT       ES1
      000000D7H   SFRSYM    DATA     BYTE      PWMDIF
      000000A8H.3 SFRSYM    DATA     BIT       ET1
      00000088H.5 SFRSYM    DATA     BIT       TF0
      000000FDH   SFRSYM    DATA     BYTE      IDLSTH
LX51 LINKER/LOCATER V4.66.87.0                                                        03/10/2021  11:45:25  PAGE 31


      000000A8H.5 SFRSYM    DATA     BIT       ET2
      00000088H.7 SFRSYM    DATA     BIT       TF1
      000000C8H.7 SFRSYM    DATA     BIT       TF2
      0000008CH   SFRSYM    DATA     BYTE      TH0
      000000A8H.0 SFRSYM    DATA     BIT       EX0
      00000088H.0 SFRSYM    DATA     BIT       IT0
      0000008DH   SFRSYM    DATA     BYTE      TH1
      000000A8H.2 SFRSYM    DATA     BIT       EX1
      00000088H.2 SFRSYM    DATA     BIT       IT1
      000000FCH   SFRSYM    DATA     BYTE      IDLSTL
      000000CDH   SFRSYM    DATA     BYTE      TH2
      000000D0H.0 SFRSYM    DATA     BIT       P
      0000008AH   SFRSYM    DATA     BYTE      TL0
      0000008BH   SFRSYM    DATA     BYTE      TL1
      000000CCH   SFRSYM    DATA     BYTE      TL2
      000000B8H.4 SFRSYM    DATA     BIT       PS0
      000000B8H.1 SFRSYM    DATA     BIT       PT0
      000000B8H.6 SFRSYM    DATA     BIT       PS1
      000000B4H   SFRSYM    DATA     BYTE      I2CCR
      000000B8H.3 SFRSYM    DATA     BIT       PT1
      000000D0H.3 SFRSYM    DATA     BIT       RS0
      000000BDH   SFRSYM    DATA     BYTE      ADCDH
      000000B8H.5 SFRSYM    DATA     BIT       PT2
      00000088H.4 SFRSYM    DATA     BIT       TR0
      000000D0H.4 SFRSYM    DATA     BIT       RS1
      000000DDH   SFRSYM    DATA     BYTE      PWMCON
      00000088H.6 SFRSYM    DATA     BIT       TR1
      000000ADH   SFRSYM    DATA     BYTE      WDVTHH
      000000C8H.6 SFRSYM    DATA     BIT       TR2
      000000B8H.0 SFRSYM    DATA     BIT       PX0
      000000B8H.2 SFRSYM    DATA     BIT       PX1
      000000BCH   SFRSYM    DATA     BYTE      ADCDL
      000000ACH   SFRSYM    DATA     BYTE      WDVTHL
      000000DBH   SFRSYM    DATA     BYTE      PWMUPD
      0000009BH   SFRSYM    DATA     BYTE      S1BUF
      000000A2H   SFRSYM    DATA     BYTE      S2BUF
      0000009AH   SFRSYM    DATA     BYTE      S1CON
      000000B9H   SFRSYM    DATA     BYTE      ADCON
      000000A1H   SFRSYM    DATA     BYTE      S2CON
      000000D0H.1 SFRSYM    DATA     BIT       DPS
      000000C9H   SFRSYM    DATA     BYTE      T2MOD
      000000C8H   SFRSYM    DATA     BYTE      T2CON
      000000FFH   SFRSYM    DATA     BYTE      STPSTH
      000000FEH   SFRSYM    DATA     BYTE      STPSTL
      000000D0H.5 SFRSYM    DATA     BIT       F0
      000000ABH   SFRSYM    DATA     BYTE      WDFLG
      000000FBH   SFRSYM    DATA     BYTE      EPCON
      000000F7H   SFRSYM    DATA     BYTE      INDEX
      000000D0H   SFRSYM    DATA     BYTE      PSW
      000000AAH   SFRSYM    DATA     BYTE      WDCON
      000000A6H   SFRSYM    DATA     BYTE      SPDAT

      ---         MODULE    ---      ---       RGB
      02000180H   PUBLIC    XDATA    BYTE      gp_2_5ms_timer
      0200017FH   PUBLIC    XDATA    BYTE      red_duty
      0200017EH   PUBLIC    XDATA    BYTE      f_flash
      0200017DH   PUBLIC    XDATA    BYTE      blue_duty
      0200017CH   PUBLIC    XDATA    BYTE      led_breathing_index
      0200017AH   PUBLIC    XDATA    WORD      breathing_timer
      02000179H   PUBLIC    XDATA    BYTE      green_duty
      02000178H   PUBLIC    XDATA    BYTE      led_color_index
      02000177H   PUBLIC    XDATA    BYTE      rgb_pwm_div
      02000175H   PUBLIC    XDATA    WORD      flash_timer
      02000173H   PUBLIC    XDATA    WORD      u16_gp_4ms_timer
      010009B4H   PUBLIC    CODE     ---       RGB_Led_Breathing
LX51 LINKER/LOCATER V4.66.87.0                                                        03/10/2021  11:45:25  PAGE 32


      0100226BH   PUBLIC    CODE     ---       _set_lamp_color
      0100265FH   PUBLIC    CODE     ---       _set_lamp_duty
      010030FBH   PUBLIC    CODE     ---       lamp_init
      00000080H   SFRSYM    DATA     BYTE      P0
      00000090H   SFRSYM    DATA     BYTE      P1
      000000A0H   SFRSYM    DATA     BYTE      P2
      000000B0H   SFRSYM    DATA     BYTE      P3
      000000D0H.6 SFRSYM    DATA     BIT       AC
      000000A5H   SFRSYM    DATA     BYTE      SPCON
      000000A8H.7 SFRSYM    DATA     BIT       EA
      000000C8H.0 SFRSYM    DATA     BIT       T2P0
      000000C8H.1 SFRSYM    DATA     BIT       T2P1
      000000C8H.4 SFRSYM    DATA     BIT       T2R0
      000000DAH   SFRSYM    DATA     BYTE      PWMEN
      00000086H   SFRSYM    DATA     BYTE      PWCON
      000000C8H.5 SFRSYM    DATA     BIT       T2R1
      000000A7H   SFRSYM    DATA     BYTE      SPSTA
      00000083H   SFRSYM    DATA     BYTE      DP0H
      000000A8H   SFRSYM    DATA     BYTE      IE
      00000085H   SFRSYM    DATA     BYTE      DP1H
      00000082H   SFRSYM    DATA     BYTE      DP0L
      000000CBH   SFRSYM    DATA     BYTE      T2CH
      000000B3H   SFRSYM    DATA     BYTE      I2CADM
      00000084H   SFRSYM    DATA     BYTE      DP1L
      000000C8H.3 SFRSYM    DATA     BIT       T2IE
      000000CAH   SFRSYM    DATA     BYTE      T2CL
      000000B2H   SFRSYM    DATA     BYTE      I2CADR
      000000B8H   SFRSYM    DATA     BYTE      IP
      000000B7H   SFRSYM    DATA     BYTE      I2CFLG
      000000B5H   SFRSYM    DATA     BYTE      I2CDAT
      000000D0H.7 SFRSYM    DATA     BIT       CY
      000000BBH   SFRSYM    DATA     BYTE      ADCFGH
      000000DCH   SFRSYM    DATA     BYTE      PWMCMAX
      000000B1H   SFRSYM    DATA     BYTE      I2CCON
      000000D1H   SFRSYM    DATA     BYTE      PWMDIVH
      000000BAH   SFRSYM    DATA     BYTE      ADCFGL
      00000081H   SFRSYM    DATA     BYTE      SP
      000000F9H   SFRSYM    DATA     BYTE      EPIE
      000000D0H.2 SFRSYM    DATA     BIT       OV
      000000FAH   SFRSYM    DATA     BYTE      EPIF
      000000DFH   SFRSYM    DATA     BYTE      PWMDIVL
      000000B6H   SFRSYM    DATA     BYTE      I2CSTA
      000000E8H   SFRSYM    DATA     BYTE      EXIE
      000000D3H   SFRSYM    DATA     BYTE      PWMDUTH
      0000008FH   SFRSYM    DATA     BYTE      IT0CON
      00000080H.0 SFRSYM    DATA     BIT       P00
      000000D2H   SFRSYM    DATA     BYTE      PWMDUTL
      0000008EH   SFRSYM    DATA     BYTE      IT1CON
      00000090H.0 SFRSYM    DATA     BIT       P10
      00000080H.1 SFRSYM    DATA     BIT       P01
      0000009DH   SFRSYM    DATA     BYTE      S1RELH
      00000087H   SFRSYM    DATA     BYTE      PCON
      000000A0H.0 SFRSYM    DATA     BIT       P20
      00000090H.1 SFRSYM    DATA     BIT       P11
      00000080H.2 SFRSYM    DATA     BIT       P02
      000000E8H.0 SFRSYM    DATA     BIT       INT2EN
      000000A4H   SFRSYM    DATA     BYTE      S2RELH
      000000B0H.0 SFRSYM    DATA     BIT       P30
      00000090H.2 SFRSYM    DATA     BIT       P12
      00000080H.3 SFRSYM    DATA     BIT       P03
      000000E8H.1 SFRSYM    DATA     BIT       INT3EN
      00000090H.3 SFRSYM    DATA     BIT       P13
      00000080H.4 SFRSYM    DATA     BIT       P04
      000000E8H.2 SFRSYM    DATA     BIT       INT4EN
      00000090H.4 SFRSYM    DATA     BIT       P14
LX51 LINKER/LOCATER V4.66.87.0                                                        03/10/2021  11:45:25  PAGE 33


      00000080H.5 SFRSYM    DATA     BIT       P05
      000000E8H.3 SFRSYM    DATA     BIT       INT5EN
      0000009CH   SFRSYM    DATA     BYTE      S1RELL
      00000089H   SFRSYM    DATA     BYTE      TMOD
      00000088H   SFRSYM    DATA     BYTE      TCON
      00000090H.5 SFRSYM    DATA     BIT       P15
      00000080H.6 SFRSYM    DATA     BIT       P06
      000000E8H.4 SFRSYM    DATA     BIT       INT6EN
      000000A3H   SFRSYM    DATA     BYTE      S2RELL
      00000090H.6 SFRSYM    DATA     BIT       P16
      00000080H.7 SFRSYM    DATA     BIT       P07
      000000E8H.5 SFRSYM    DATA     BIT       INT7EN
      000000C8H.2 SFRSYM    DATA     BIT       UCKS
      000000F8H   SFRSYM    DATA     BYTE      EXIP
      00000090H.7 SFRSYM    DATA     BIT       P17
      000000E8H.6 SFRSYM    DATA     BIT       INT8EN
      000000E8H.7 SFRSYM    DATA     BIT       INT9EN
      00000088H.1 SFRSYM    DATA     BIT       IE0
      00000088H.3 SFRSYM    DATA     BIT       IE1
      000000F0H   SFRSYM    DATA     BYTE      B
      000000E7H   SFRSYM    DATA     BYTE      MDUDAT
      000000DEH   SFRSYM    DATA     BYTE      PWMCFG
      000000D4H   SFRSYM    DATA     BYTE      PWMAIF
      000000E0H   SFRSYM    DATA     BYTE      ACC
      000000D5H   SFRSYM    DATA     BYTE      PWMBIF
      000000A8H.4 SFRSYM    DATA     BIT       ES0
      000000EFH   SFRSYM    DATA     BYTE      LVDCON
      000000E6H   SFRSYM    DATA     BYTE      MDUCON
      000000D6H   SFRSYM    DATA     BYTE      PWMCIF
      000000A8H.1 SFRSYM    DATA     BIT       ET0
      000000A8H.6 SFRSYM    DATA     BIT       ES1
      000000D7H   SFRSYM    DATA     BYTE      PWMDIF
      000000A8H.3 SFRSYM    DATA     BIT       ET1
      00000088H.5 SFRSYM    DATA     BIT       TF0
      000000FDH   SFRSYM    DATA     BYTE      IDLSTH
      000000A8H.5 SFRSYM    DATA     BIT       ET2
      00000088H.7 SFRSYM    DATA     BIT       TF1
      000000C8H.7 SFRSYM    DATA     BIT       TF2
      0000008CH   SFRSYM    DATA     BYTE      TH0
      000000A8H.0 SFRSYM    DATA     BIT       EX0
      00000088H.0 SFRSYM    DATA     BIT       IT0
      0000008DH   SFRSYM    DATA     BYTE      TH1
      000000A8H.2 SFRSYM    DATA     BIT       EX1
      00000088H.2 SFRSYM    DATA     BIT       IT1
      000000FCH   SFRSYM    DATA     BYTE      IDLSTL
      000000CDH   SFRSYM    DATA     BYTE      TH2
      000000D0H.0 SFRSYM    DATA     BIT       P
      0000008AH   SFRSYM    DATA     BYTE      TL0
      0000008BH   SFRSYM    DATA     BYTE      TL1
      000000CCH   SFRSYM    DATA     BYTE      TL2
      000000B8H.4 SFRSYM    DATA     BIT       PS0
      000000B8H.1 SFRSYM    DATA     BIT       PT0
      000000B8H.6 SFRSYM    DATA     BIT       PS1
      000000B4H   SFRSYM    DATA     BYTE      I2CCR
      000000B8H.3 SFRSYM    DATA     BIT       PT1
      000000D0H.3 SFRSYM    DATA     BIT       RS0
      000000BDH   SFRSYM    DATA     BYTE      ADCDH
      000000B8H.5 SFRSYM    DATA     BIT       PT2
      00000088H.4 SFRSYM    DATA     BIT       TR0
      000000D0H.4 SFRSYM    DATA     BIT       RS1
      000000DDH   SFRSYM    DATA     BYTE      PWMCON
      00000088H.6 SFRSYM    DATA     BIT       TR1
      000000ADH   SFRSYM    DATA     BYTE      WDVTHH
      000000C8H.6 SFRSYM    DATA     BIT       TR2
      000000B8H.0 SFRSYM    DATA     BIT       PX0
LX51 LINKER/LOCATER V4.66.87.0                                                        03/10/2021  11:45:25  PAGE 34


      000000B8H.2 SFRSYM    DATA     BIT       PX1
      000000BCH   SFRSYM    DATA     BYTE      ADCDL
      000000ACH   SFRSYM    DATA     BYTE      WDVTHL
      000000DBH   SFRSYM    DATA     BYTE      PWMUPD
      0000009BH   SFRSYM    DATA     BYTE      S1BUF
      000000A2H   SFRSYM    DATA     BYTE      S2BUF
      0000009AH   SFRSYM    DATA     BYTE      S1CON
      000000B9H   SFRSYM    DATA     BYTE      ADCON
      000000A1H   SFRSYM    DATA     BYTE      S2CON
      000000D0H.1 SFRSYM    DATA     BIT       DPS
      000000C9H   SFRSYM    DATA     BYTE      T2MOD
      000000C8H   SFRSYM    DATA     BYTE      T2CON
      000000FFH   SFRSYM    DATA     BYTE      STPSTH
      000000FEH   SFRSYM    DATA     BYTE      STPSTL
      000000D0H.5 SFRSYM    DATA     BIT       F0
      000000ABH   SFRSYM    DATA     BYTE      WDFLG
      000000FBH   SFRSYM    DATA     BYTE      EPCON
      000000F7H   SFRSYM    DATA     BYTE      INDEX
      000000D0H   SFRSYM    DATA     BYTE      PSW
      000000AAH   SFRSYM    DATA     BYTE      WDCON
      000000A6H   SFRSYM    DATA     BYTE      SPDAT

      010030FBH   BLOCK     CODE     ---       LVL=0
      010030FBH   LINE      CODE     ---       #41
      010030FBH   LINE      CODE     ---       #42
      010030FBH   LINE      CODE     ---       #44
      01003101H   LINE      CODE     ---       #47
      01003105H   LINE      CODE     ---       #50
      01003109H   LINE      CODE     ---       #52
      0100310FH   LINE      CODE     ---       #54
      01003112H   LINE      CODE     ---       #55
      01003116H   LINE      CODE     ---       #56
      ---         BLOCKEND  ---      ---       LVL=0

      0100265FH   BLOCK     CODE     ---       LVL=0
      00000007H   SYMBOL    DATA     BYTE      index
      0100265FH   LINE      CODE     ---       #64
      0100265FH   LINE      CODE     ---       #65
      0100265FH   LINE      CODE     ---       #66
      01002684H   LINE      CODE     ---       #67
      01002684H   LINE      CODE     ---       #68
      01002684H   LINE      CODE     ---       #69
      01002688H   LINE      CODE     ---       #70
      01002688H   LINE      CODE     ---       #71
      01002688H   LINE      CODE     ---       #73
      0100268AH   LINE      CODE     ---       #74
      0100268AH   LINE      CODE     ---       #75
      01002690H   LINE      CODE     ---       #76
      01002691H   LINE      CODE     ---       #77
      01002691H   LINE      CODE     ---       #79
      01002693H   LINE      CODE     ---       #80
      01002693H   LINE      CODE     ---       #81
      01002698H   LINE      CODE     ---       #82
      0100269DH   LINE      CODE     ---       #83
      0100269DH   LINE      CODE     ---       #85
      0100269FH   LINE      CODE     ---       #86
      0100269FH   LINE      CODE     ---       #87
      010026A4H   LINE      CODE     ---       #88
      010026A4H   LINE      CODE     ---       #89
      010026A4H   LINE      CODE     ---       #91
      010026A6H   LINE      CODE     ---       #92
      010026A6H   LINE      CODE     ---       #93
      010026ACH   LINE      CODE     ---       #94
      010026B0H   LINE      CODE     ---       #95
      010026B1H   LINE      CODE     ---       #97
LX51 LINKER/LOCATER V4.66.87.0                                                        03/10/2021  11:45:25  PAGE 35


      010026B3H   LINE      CODE     ---       #98
      010026B3H   LINE      CODE     ---       #99
      010026B9H   LINE      CODE     ---       #100
      010026BEH   LINE      CODE     ---       #101
      010026C4H   LINE      CODE     ---       #103
      010026C5H   LINE      CODE     ---       #104
      010026C5H   LINE      CODE     ---       #105
      010026CAH   LINE      CODE     ---       #106
      010026D0H   LINE      CODE     ---       #107
      010026D0H   LINE      CODE     ---       #109
      010026D2H   LINE      CODE     ---       #110
      010026D2H   LINE      CODE     ---       #111
      010026D8H   LINE      CODE     ---       #112
      010026DCH   LINE      CODE     ---       #113
      010026E0H   LINE      CODE     ---       #115
      010026E0H   LINE      CODE     ---       #123
      010026E0H   LINE      CODE     ---       #124
      010026E0H   LINE      CODE     ---       #125
      010026E0H   LINE      CODE     ---       #126
      010026E0H   LINE      CODE     ---       #127
      010026E0H   LINE      CODE     ---       #129
      010026E0H   LINE      CODE     ---       #130
      ---         BLOCKEND  ---      ---       LVL=0

      0100226BH   BLOCK     CODE     ---       LVL=0
      00000007H   SYMBOL    DATA     BYTE      index
      0100226BH   LINE      CODE     ---       #137
      0100226BH   LINE      CODE     ---       #138
      0100226BH   LINE      CODE     ---       #139
      01002275H   LINE      CODE     ---       #140
      01002275H   LINE      CODE     ---       #141
      01002275H   LINE      CODE     ---       #144
      01002275H   LINE      CODE     ---       #145
      01002275H   LINE      CODE     ---       #146
      01002275H   LINE      CODE     ---       #147
      01002275H   LINE      CODE     ---       #148
      01002275H   LINE      CODE     ---       #149
      01002275H   LINE      CODE     ---       #150
      01002275H   LINE      CODE     ---       #153
      01002278H   LINE      CODE     ---       #154
      0100227BH   LINE      CODE     ---       #155
      0100227DH   LINE      CODE     ---       #156
      0100227FH   LINE      CODE     ---       #157
      01002286H   LINE      CODE     ---       #158
      01002289H   LINE      CODE     ---       #159
      0100228FH   LINE      CODE     ---       #160
      01002295H   LINE      CODE     ---       #161
      0100229BH   LINE      CODE     ---       #163
      0100229EH   LINE      CODE     ---       #164
      010022A1H   LINE      CODE     ---       #165
      010022A4H   LINE      CODE     ---       #166
      010022A6H   LINE      CODE     ---       #167
      010022A8H   LINE      CODE     ---       #168
      010022AAH   LINE      CODE     ---       #169
      010022B0H   LINE      CODE     ---       #170
      010022B6H   LINE      CODE     ---       #171
      010022BCH   LINE      CODE     ---       #173
      010022BEH   LINE      CODE     ---       #174
      010022C1H   LINE      CODE     ---       #175
      010022C3H   LINE      CODE     ---       #176
      010022C5H   LINE      CODE     ---       #177
      010022CBH   LINE      CODE     ---       #178
      010022CEH   LINE      CODE     ---       #179
      010022D4H   LINE      CODE     ---       #180
      010022DAH   LINE      CODE     ---       #181
LX51 LINKER/LOCATER V4.66.87.0                                                        03/10/2021  11:45:25  PAGE 36


      010022E0H   LINE      CODE     ---       #185
      010022E3H   LINE      CODE     ---       #186
      010022E7H   LINE      CODE     ---       #187
      010022EAH   LINE      CODE     ---       #189
      010022EBH   LINE      CODE     ---       #190
      010022EBH   LINE      CODE     ---       #191
      010022F0H   LINE      CODE     ---       #192
      010022F4H   LINE      CODE     ---       #193
      010022F8H   LINE      CODE     ---       #194
      010022FCH   LINE      CODE     ---       #195
      0100230BH   LINE      CODE     ---       #196
      0100230BH   LINE      CODE     ---       #197
      0100230BH   LINE      CODE     ---       #198
      0100230BH   LINE      CODE     ---       #199
      0100230BH   LINE      CODE     ---       #200
      ---         BLOCKEND  ---      ---       LVL=0

      010009B4H   BLOCK     CODE     ---       LVL=0
      010009B4H   LINE      CODE     ---       #311
      010009B4H   LINE      CODE     ---       #312
      010009B4H   LINE      CODE     ---       #313
      010009BFH   LINE      CODE     ---       #315
      010009E0H   LINE      CODE     ---       #316
      010009E0H   LINE      CODE     ---       #317
      010009E5H   LINE      CODE     ---       #318
      010009EAH   LINE      CODE     ---       #319
      010009EAH   LINE      CODE     ---       #320
      010009F5H   LINE      CODE     ---       #323
      010009F9H   LINE      CODE     ---       #324
      010009F9H   LINE      CODE     ---       #325
      01000A05H   LINE      CODE     ---       #327
      01000A05H   LINE      CODE     ---       #328
      01000A08H   LINE      CODE     ---       #329
      01000A08H   LINE      CODE     ---       #330
      01000A08H   LINE      CODE     ---       #331
      01000A0AH   LINE      CODE     ---       #332
      01000A12H   LINE      CODE     ---       #333
      01000A12H   LINE      CODE     ---       #334
      01000A1EH   LINE      CODE     ---       #336
      01000A1EH   LINE      CODE     ---       #337
      01000A1EH   LINE      CODE     ---       #338
      01000A1EH   LINE      CODE     ---       #339
      01000A20H   LINE      CODE     ---       #340
      01000A24H   LINE      CODE     ---       #341
      01000A24H   LINE      CODE     ---       #342
      01000A30H   LINE      CODE     ---       #344
      01000A30H   LINE      CODE     ---       #346
      01000A35H   LINE      CODE     ---       #347
      01000A35H   LINE      CODE     ---       #348
      01000A35H   LINE      CODE     ---       #349
      01000A37H   LINE      CODE     ---       #350
      01000A3FH   LINE      CODE     ---       #351
      01000A3FH   LINE      CODE     ---       #352
      01000A49H   LINE      CODE     ---       #353
      01000A4CH   LINE      CODE     ---       #354
      01000A4FH   LINE      CODE     ---       #355
      01000A53H   LINE      CODE     ---       #356
      01000A53H   LINE      CODE     ---       #357
      01000A5FH   LINE      CODE     ---       #359
      01000A5FH   LINE      CODE     ---       #360
      01000A65H   LINE      CODE     ---       #361
      01000A69H   LINE      CODE     ---       #362
      01000A6CH   LINE      CODE     ---       #363
      01000A6CH   LINE      CODE     ---       #364
      01000A6FH   LINE      CODE     ---       #365
LX51 LINKER/LOCATER V4.66.87.0                                                        03/10/2021  11:45:25  PAGE 37


      01000A77H   LINE      CODE     ---       #366
      01000A77H   LINE      CODE     ---       #367
      01000A95H   LINE      CODE     ---       #369
      01000A95H   LINE      CODE     ---       #372
      01000A98H   LINE      CODE     ---       #373
      01000A98H   LINE      CODE     ---       #374
      01000A9BH   LINE      CODE     ---       #375
      01000A9FH   LINE      CODE     ---       #376
      01000A9FH   LINE      CODE     ---       #377
      01000ABDH   LINE      CODE     ---       #379
      01000ABDH   LINE      CODE     ---       #380
      01000AC3H   LINE      CODE     ---       #381
      01000AC7H   LINE      CODE     ---       #382
      01000ACAH   LINE      CODE     ---       #383
      01000ACAH   LINE      CODE     ---       #384
      01000ACDH   LINE      CODE     ---       #385
      01000AD5H   LINE      CODE     ---       #386
      01000AD5H   LINE      CODE     ---       #387
      01000AF2H   LINE      CODE     ---       #389
      01000AF2H   LINE      CODE     ---       #392
      01000AF5H   LINE      CODE     ---       #393
      01000AF5H   LINE      CODE     ---       #394
      01000AF7H   LINE      CODE     ---       #395
      01000AFBH   LINE      CODE     ---       #396
      01000AFBH   LINE      CODE     ---       #397
      01000B18H   LINE      CODE     ---       #399
      01000B18H   LINE      CODE     ---       #400
      01000B1EH   LINE      CODE     ---       #401
      01000B22H   LINE      CODE     ---       #402
      01000B25H   LINE      CODE     ---       #403
      01000B25H   LINE      CODE     ---       #404
      01000B27H   LINE      CODE     ---       #405
      01000B2FH   LINE      CODE     ---       #406
      01000B2FH   LINE      CODE     ---       #407
      01000B4CH   LINE      CODE     ---       #409
      01000B4CH   LINE      CODE     ---       #412
      01000B52H   LINE      CODE     ---       #413
      01000B52H   LINE      CODE     ---       #414
      01000B54H   LINE      CODE     ---       #415
      01000B58H   LINE      CODE     ---       #416
      01000B58H   LINE      CODE     ---       #417
      01000B78H   LINE      CODE     ---       #419
      01000B78H   LINE      CODE     ---       #420
      01000B7EH   LINE      CODE     ---       #421
      01000B83H   LINE      CODE     ---       #422
      01000B83H   LINE      CODE     ---       #423
      01000B83H   LINE      CODE     ---       #425
      01000B86H   LINE      CODE     ---       #426
      01000B89H   LINE      CODE     ---       #427
      01000B8BH   LINE      CODE     ---       #428
      01000B8DH   LINE      CODE     ---       #429
      01000B94H   LINE      CODE     ---       #430
      01000B97H   LINE      CODE     ---       #431
      01000B9DH   LINE      CODE     ---       #432
      01000BA3H   LINE      CODE     ---       #433
      01000BA9H   LINE      CODE     ---       #435
      01000BACH   LINE      CODE     ---       #436
      01000BAFH   LINE      CODE     ---       #437
      01000BB2H   LINE      CODE     ---       #438
      01000BB4H   LINE      CODE     ---       #439
      01000BB6H   LINE      CODE     ---       #440
      01000BB8H   LINE      CODE     ---       #441
      01000BBEH   LINE      CODE     ---       #442
      01000BC4H   LINE      CODE     ---       #443
      01000BCAH   LINE      CODE     ---       #445
LX51 LINKER/LOCATER V4.66.87.0                                                        03/10/2021  11:45:25  PAGE 38


      01000BCCH   LINE      CODE     ---       #446
      01000BCFH   LINE      CODE     ---       #447
      01000BD1H   LINE      CODE     ---       #448
      01000BD3H   LINE      CODE     ---       #449
      01000BD9H   LINE      CODE     ---       #450
      01000BDCH   LINE      CODE     ---       #451
      01000BE2H   LINE      CODE     ---       #452
      01000BE8H   LINE      CODE     ---       #453
      01000BEEH   LINE      CODE     ---       #456
      01000BF1H   LINE      CODE     ---       #457
      01000BF5H   LINE      CODE     ---       #458
      01000BF8H   LINE      CODE     ---       #459
      01000BF8H   LINE      CODE     ---       #460
      ---         BLOCKEND  ---      ---       LVL=0

      ---         MODULE    ---      ---       MYSYSTEM
      00000020H.3 PUBLIC    BIT      BIT       Day_Flag
      02000172H   PUBLIC    XDATA    BYTE      Cnt_1sN
      02000171H   PUBLIC    XDATA    BYTE      Cnt_1mN
      02000170H   PUBLIC    XDATA    BYTE      Cnt_1sD
      00000020H.2 PUBLIC    BIT      BIT       Day_Time_Flag
      0200016FH   PUBLIC    XDATA    BYTE      Cnt_1mD
      00000020H.1 PUBLIC    BIT      BIT       Night_Flag
      02000166H   PUBLIC    XDATA    BYTE      SHT30_Measure_Timeout
      00000020H.0 PUBLIC    BIT      BIT       Night_Time_Flag
      02000161H   PUBLIC    XDATA    BYTE      Cnt_msN
      02000160H   PUBLIC    XDATA    BYTE      Cnt_msD
      0100320FH   PUBLIC    CODE     ---       get_timer_250ms_value
      010019BAH   PUBLIC    CODE     ---       Timer1_ISR
      010031B0H   PUBLIC    CODE     ---       Timer1_Init
      01002A47H   PUBLIC    CODE     ---       Timer0_ISR
      0100001EH   PUBLIC    CODE     ---       Timer0_Init
      01001CF0H   PUBLIC    CODE     ---       wifi_work_state_led
      01000009H   PUBLIC    CODE     ---       MyGPIO_Init
      010030B3H   PUBLIC    CODE     ---       MySystem_Init
      00000080H   SFRSYM    DATA     BYTE      P0
      00000090H   SFRSYM    DATA     BYTE      P1
      000000A0H   SFRSYM    DATA     BYTE      P2
      000000B0H   SFRSYM    DATA     BYTE      P3
      000000D0H.6 SFRSYM    DATA     BIT       AC
      000000A5H   SFRSYM    DATA     BYTE      SPCON
      000000A8H.7 SFRSYM    DATA     BIT       EA
      000000C8H.0 SFRSYM    DATA     BIT       T2P0
      000000C8H.1 SFRSYM    DATA     BIT       T2P1
      000000C8H.4 SFRSYM    DATA     BIT       T2R0
      000000DAH   SFRSYM    DATA     BYTE      PWMEN
      00000086H   SFRSYM    DATA     BYTE      PWCON
      000000C8H.5 SFRSYM    DATA     BIT       T2R1
      000000A7H   SFRSYM    DATA     BYTE      SPSTA
      00000083H   SFRSYM    DATA     BYTE      DP0H
      000000A8H   SFRSYM    DATA     BYTE      IE
      00000085H   SFRSYM    DATA     BYTE      DP1H
      00000082H   SFRSYM    DATA     BYTE      DP0L
      000000CBH   SFRSYM    DATA     BYTE      T2CH
      000000B3H   SFRSYM    DATA     BYTE      I2CADM
      00000084H   SFRSYM    DATA     BYTE      DP1L
      000000C8H.3 SFRSYM    DATA     BIT       T2IE
      000000CAH   SFRSYM    DATA     BYTE      T2CL
      000000B2H   SFRSYM    DATA     BYTE      I2CADR
      000000B8H   SFRSYM    DATA     BYTE      IP
      000000B7H   SFRSYM    DATA     BYTE      I2CFLG
      000000B5H   SFRSYM    DATA     BYTE      I2CDAT
      000000D0H.7 SFRSYM    DATA     BIT       CY
      000000BBH   SFRSYM    DATA     BYTE      ADCFGH
      000000DCH   SFRSYM    DATA     BYTE      PWMCMAX
LX51 LINKER/LOCATER V4.66.87.0                                                        03/10/2021  11:45:25  PAGE 39


      000000B1H   SFRSYM    DATA     BYTE      I2CCON
      000000D1H   SFRSYM    DATA     BYTE      PWMDIVH
      000000BAH   SFRSYM    DATA     BYTE      ADCFGL
      00000081H   SFRSYM    DATA     BYTE      SP
      000000F9H   SFRSYM    DATA     BYTE      EPIE
      000000D0H.2 SFRSYM    DATA     BIT       OV
      000000FAH   SFRSYM    DATA     BYTE      EPIF
      000000DFH   SFRSYM    DATA     BYTE      PWMDIVL
      000000B6H   SFRSYM    DATA     BYTE      I2CSTA
      000000E8H   SFRSYM    DATA     BYTE      EXIE
      000000D3H   SFRSYM    DATA     BYTE      PWMDUTH
      0000008FH   SFRSYM    DATA     BYTE      IT0CON
      00000080H.0 SFRSYM    DATA     BIT       P00
      000000D2H   SFRSYM    DATA     BYTE      PWMDUTL
      0000008EH   SFRSYM    DATA     BYTE      IT1CON
      00000090H.0 SFRSYM    DATA     BIT       P10
      00000080H.1 SFRSYM    DATA     BIT       P01
      0000009DH   SFRSYM    DATA     BYTE      S1RELH
      00000087H   SFRSYM    DATA     BYTE      PCON
      000000A0H.0 SFRSYM    DATA     BIT       P20
      00000090H.1 SFRSYM    DATA     BIT       P11
      00000080H.2 SFRSYM    DATA     BIT       P02
      000000E8H.0 SFRSYM    DATA     BIT       INT2EN
      000000A4H   SFRSYM    DATA     BYTE      S2RELH
      000000B0H.0 SFRSYM    DATA     BIT       P30
      00000090H.2 SFRSYM    DATA     BIT       P12
      00000080H.3 SFRSYM    DATA     BIT       P03
      000000E8H.1 SFRSYM    DATA     BIT       INT3EN
      00000090H.3 SFRSYM    DATA     BIT       P13
      00000080H.4 SFRSYM    DATA     BIT       P04
      000000E8H.2 SFRSYM    DATA     BIT       INT4EN
      00000090H.4 SFRSYM    DATA     BIT       P14
      00000080H.5 SFRSYM    DATA     BIT       P05
      000000E8H.3 SFRSYM    DATA     BIT       INT5EN
      0000009CH   SFRSYM    DATA     BYTE      S1RELL
      00000089H   SFRSYM    DATA     BYTE      TMOD
      00000088H   SFRSYM    DATA     BYTE      TCON
      00000090H.5 SFRSYM    DATA     BIT       P15
      00000080H.6 SFRSYM    DATA     BIT       P06
      000000E8H.4 SFRSYM    DATA     BIT       INT6EN
      000000A3H   SFRSYM    DATA     BYTE      S2RELL
      00000090H.6 SFRSYM    DATA     BIT       P16
      00000080H.7 SFRSYM    DATA     BIT       P07
      000000E8H.5 SFRSYM    DATA     BIT       INT7EN
      000000C8H.2 SFRSYM    DATA     BIT       UCKS
      000000F8H   SFRSYM    DATA     BYTE      EXIP
      00000090H.7 SFRSYM    DATA     BIT       P17
      000000E8H.6 SFRSYM    DATA     BIT       INT8EN
      000000E8H.7 SFRSYM    DATA     BIT       INT9EN
      00000088H.1 SFRSYM    DATA     BIT       IE0
      00000088H.3 SFRSYM    DATA     BIT       IE1
      000000F0H   SFRSYM    DATA     BYTE      B
      000000E7H   SFRSYM    DATA     BYTE      MDUDAT
      000000DEH   SFRSYM    DATA     BYTE      PWMCFG
      000000D4H   SFRSYM    DATA     BYTE      PWMAIF
      000000E0H   SFRSYM    DATA     BYTE      ACC
      000000D5H   SFRSYM    DATA     BYTE      PWMBIF
      000000A8H.4 SFRSYM    DATA     BIT       ES0
      000000EFH   SFRSYM    DATA     BYTE      LVDCON
      000000E6H   SFRSYM    DATA     BYTE      MDUCON
      000000D6H   SFRSYM    DATA     BYTE      PWMCIF
      000000A8H.1 SFRSYM    DATA     BIT       ET0
      000000A8H.6 SFRSYM    DATA     BIT       ES1
      000000D7H   SFRSYM    DATA     BYTE      PWMDIF
      000000A8H.3 SFRSYM    DATA     BIT       ET1
LX51 LINKER/LOCATER V4.66.87.0                                                        03/10/2021  11:45:25  PAGE 40


      00000088H.5 SFRSYM    DATA     BIT       TF0
      000000FDH   SFRSYM    DATA     BYTE      IDLSTH
      000000A8H.5 SFRSYM    DATA     BIT       ET2
      00000088H.7 SFRSYM    DATA     BIT       TF1
      000000C8H.7 SFRSYM    DATA     BIT       TF2
      0000008CH   SFRSYM    DATA     BYTE      TH0
      000000A8H.0 SFRSYM    DATA     BIT       EX0
      00000088H.0 SFRSYM    DATA     BIT       IT0
      0000008DH   SFRSYM    DATA     BYTE      TH1
      000000A8H.2 SFRSYM    DATA     BIT       EX1
      00000088H.2 SFRSYM    DATA     BIT       IT1
      000000FCH   SFRSYM    DATA     BYTE      IDLSTL
      000000CDH   SFRSYM    DATA     BYTE      TH2
      000000D0H.0 SFRSYM    DATA     BIT       P
      0000008AH   SFRSYM    DATA     BYTE      TL0
      0000008BH   SFRSYM    DATA     BYTE      TL1
      000000CCH   SFRSYM    DATA     BYTE      TL2
      000000B8H.4 SFRSYM    DATA     BIT       PS0
      000000B8H.1 SFRSYM    DATA     BIT       PT0
      000000B8H.6 SFRSYM    DATA     BIT       PS1
      000000B4H   SFRSYM    DATA     BYTE      I2CCR
      000000B8H.3 SFRSYM    DATA     BIT       PT1
      000000D0H.3 SFRSYM    DATA     BIT       RS0
      000000BDH   SFRSYM    DATA     BYTE      ADCDH
      000000B8H.5 SFRSYM    DATA     BIT       PT2
      00000088H.4 SFRSYM    DATA     BIT       TR0
      000000D0H.4 SFRSYM    DATA     BIT       RS1
      000000DDH   SFRSYM    DATA     BYTE      PWMCON
      00000088H.6 SFRSYM    DATA     BIT       TR1
      000000ADH   SFRSYM    DATA     BYTE      WDVTHH
      000000C8H.6 SFRSYM    DATA     BIT       TR2
      000000B8H.0 SFRSYM    DATA     BIT       PX0
      000000B8H.2 SFRSYM    DATA     BIT       PX1
      000000BCH   SFRSYM    DATA     BYTE      ADCDL
      000000ACH   SFRSYM    DATA     BYTE      WDVTHL
      000000DBH   SFRSYM    DATA     BYTE      PWMUPD
      0000009BH   SFRSYM    DATA     BYTE      S1BUF
      000000A2H   SFRSYM    DATA     BYTE      S2BUF
      0000009AH   SFRSYM    DATA     BYTE      S1CON
      000000B9H   SFRSYM    DATA     BYTE      ADCON
      000000A1H   SFRSYM    DATA     BYTE      S2CON
      000000D0H.1 SFRSYM    DATA     BIT       DPS
      000000C9H   SFRSYM    DATA     BYTE      T2MOD
      000000C8H   SFRSYM    DATA     BYTE      T2CON
      000000FFH   SFRSYM    DATA     BYTE      STPSTH
      000000FEH   SFRSYM    DATA     BYTE      STPSTL
      000000D0H.5 SFRSYM    DATA     BIT       F0
      000000ABH   SFRSYM    DATA     BYTE      WDFLG
      000000FBH   SFRSYM    DATA     BYTE      EPCON
      000000F7H   SFRSYM    DATA     BYTE      INDEX
      000000D0H   SFRSYM    DATA     BYTE      PSW
      000000AAH   SFRSYM    DATA     BYTE      WDCON
      000000A6H   SFRSYM    DATA     BYTE      SPDAT
      02000162H   SYMBOL    XDATA    DWORD     Timer_250ms_Value
      02000167H   SYMBOL    XDATA    DWORD     Timer_Sec_Value
      0200016BH   SYMBOL    XDATA    DWORD     Timer_Value

      010030B3H   BLOCK     CODE     ---       LVL=0
      010030B3H   LINE      CODE     ---       #46
      010030B3H   LINE      CODE     ---       #47
      010030B3H   LINE      CODE     ---       #48
      010030B6H   LINE      CODE     ---       #49
      010030B9H   LINE      CODE     ---       #50
      010030BCH   LINE      CODE     ---       #51
      010030BFH   LINE      CODE     ---       #52
LX51 LINKER/LOCATER V4.66.87.0                                                        03/10/2021  11:45:25  PAGE 41


      010030C2H   LINE      CODE     ---       #53
      010030C5H   LINE      CODE     ---       #54
      010030C8H   LINE      CODE     ---       #55
      010030CBH   LINE      CODE     ---       #56
      010030CEH   LINE      CODE     ---       #57
      010030D1H   LINE      CODE     ---       #59
      010030D4H   LINE      CODE     ---       #60
      ---         BLOCKEND  ---      ---       LVL=0

      01000009H   BLOCK     CODE     ---       LVL=0
      01000009H   LINE      CODE     ---       #63
      01000009H   LINE      CODE     ---       #64
      01000009H   LINE      CODE     ---       #70
      ---         BLOCKEND  ---      ---       LVL=0

      01001CF0H   BLOCK     CODE     ---       LVL=0
      01001CF0H   BLOCK     CODE     NEAR LAB  LVL=1
      00000007H   SYMBOL    DATA     BYTE      wifi_state
      0200015FH   SYMBOL    XDATA    BYTE      wifi_state_bak
      ---         BLOCKEND  ---      ---       LVL=1
      01001CF0H   LINE      CODE     ---       #79
      01001CF0H   LINE      CODE     ---       #80
      01001CF0H   LINE      CODE     ---       #81
      01001CF3H   LINE      CODE     ---       #84
      01001D0AH   LINE      CODE     ---       #85
      01001D0AH   LINE      CODE     ---       #86
      01001D0AH   LINE      CODE     ---       #87
      01001D1FH   LINE      CODE     ---       #88
      01001D1FH   LINE      CODE     ---       #90
      01001D23H   LINE      CODE     ---       #91
      01001D23H   LINE      CODE     ---       #92
      01001D23H   LINE      CODE     ---       #93
      01001D25H   LINE      CODE     ---       #95
      01001D25H   LINE      CODE     ---       #97
      01001D2AH   LINE      CODE     ---       #98
      01001D2EH   LINE      CODE     ---       #99
      01001D36H   LINE      CODE     ---       #100
      01001D36H   LINE      CODE     ---       #101
      01001D3BH   LINE      CODE     ---       #102
      01001D3CH   LINE      CODE     ---       #104
      01001D3CH   LINE      CODE     ---       #105
      01001D5BH   LINE      CODE     ---       #106
      01001D5BH   LINE      CODE     ---       #108
      01001D5FH   LINE      CODE     ---       #109
      01001D5FH   LINE      CODE     ---       #110
      01001D5FH   LINE      CODE     ---       #111
      01001D61H   LINE      CODE     ---       #112
      01001D81H   LINE      CODE     ---       #113
      01001D81H   LINE      CODE     ---       #115
      01001D85H   LINE      CODE     ---       #116
      01001D89H   LINE      CODE     ---       #117
      01001D91H   LINE      CODE     ---       #118
      01001D91H   LINE      CODE     ---       #119
      01001D97H   LINE      CODE     ---       #120
      01001D98H   LINE      CODE     ---       #122
      01001D98H   LINE      CODE     ---       #123
      01001DA2H   LINE      CODE     ---       #124
      01001DA2H   LINE      CODE     ---       #126
      01001DA2H   LINE      CODE     ---       #127
      01001DA2H   LINE      CODE     ---       #128
      01001DA2H   LINE      CODE     ---       #129
      01001DA2H   LINE      CODE     ---       #130
      01001DA4H   LINE      CODE     ---       #132
      01001DA4H   LINE      CODE     ---       #133
      01001DAEH   LINE      CODE     ---       #134
LX51 LINKER/LOCATER V4.66.87.0                                                        03/10/2021  11:45:25  PAGE 42


      01001DAEH   LINE      CODE     ---       #136
      01001DB4H   LINE      CODE     ---       #137
      01001DB8H   LINE      CODE     ---       #138
      01001DC0H   LINE      CODE     ---       #139
      01001DC6H   LINE      CODE     ---       #140
      01001DC6H   LINE      CODE     ---       #141
      01001DC7H   LINE      CODE     ---       #143
      01001DC7H   LINE      CODE     ---       #144
      01001DD0H   LINE      CODE     ---       #145
      01001DD0H   LINE      CODE     ---       #147
      01001DD5H   LINE      CODE     ---       #148
      01001DD9H   LINE      CODE     ---       #149
      01001DE1H   LINE      CODE     ---       #150
      01001DE1H   LINE      CODE     ---       #151
      01001DE1H   LINE      CODE     ---       #152
      01001DE1H   LINE      CODE     ---       #153
      ---         BLOCKEND  ---      ---       LVL=0

      0100001EH   BLOCK     CODE     ---       LVL=0
      0100001EH   LINE      CODE     ---       #161
      0100001EH   LINE      CODE     ---       #162
      0100001EH   LINE      CODE     ---       #163
      01000026H   LINE      CODE     ---       #164
      01000029H   LINE      CODE     ---       #165
      0100002CH   LINE      CODE     ---       #167
      0100002EH   LINE      CODE     ---       #168
      01000030H   LINE      CODE     ---       #169
      01000032H   LINE      CODE     ---       #171
      ---         BLOCKEND  ---      ---       LVL=0

      01002A47H   BLOCK     CODE     ---       LVL=0
      01002A47H   LINE      CODE     ---       #173
      01002A64H   LINE      CODE     ---       #175
      01002A67H   LINE      CODE     ---       #176
      01002A6AH   LINE      CODE     ---       #177
      01002A70H   LINE      CODE     ---       #178
      01002A76H   LINE      CODE     ---       #179
      01002A76H   LINE      CODE     ---       #180
      01002A78H   LINE      CODE     ---       #181
      01002A78H   LINE      CODE     ---       #183
      01002A83H   LINE      CODE     ---       #185
      ---         BLOCKEND  ---      ---       LVL=0

      010031B0H   BLOCK     CODE     ---       LVL=0
      010031B0H   LINE      CODE     ---       #193
      010031B0H   LINE      CODE     ---       #194
      010031B0H   LINE      CODE     ---       #195
      010031B8H   LINE      CODE     ---       #196
      010031BBH   LINE      CODE     ---       #197
      010031BEH   LINE      CODE     ---       #199
      010031C0H   LINE      CODE     ---       #200
      010031C2H   LINE      CODE     ---       #201
      010031C4H   LINE      CODE     ---       #203
      ---         BLOCKEND  ---      ---       LVL=0

      010019BAH   BLOCK     CODE     ---       LVL=0
      010019BAH   LINE      CODE     ---       #205
      010019D7H   LINE      CODE     ---       #207
      010019DAH   LINE      CODE     ---       #208
      010019DDH   LINE      CODE     ---       #210
      010019FCH   LINE      CODE     ---       #211
      01001A29H   LINE      CODE     ---       #212
      01001A29H   LINE      CODE     ---       #213
      01001A48H   LINE      CODE     ---       #214
      01001A70H   LINE      CODE     ---       #215
LX51 LINKER/LOCATER V4.66.87.0                                                        03/10/2021  11:45:25  PAGE 43


      01001A70H   LINE      CODE     ---       #216
      01001A8FH   LINE      CODE     ---       #217
      01001A8FH   LINE      CODE     ---       #218
      01001AAAH   LINE      CODE     ---       #219
      01001AAAH   LINE      CODE     ---       #220
      01001AB4H   LINE      CODE     ---       #221
      01001AB4H   LINE      CODE     ---       #222
      01001AB4H   LINE      CODE     ---       #223
      01001AC2H   LINE      CODE     ---       #224
      01001AC8H   LINE      CODE     ---       #226
      ---         BLOCKEND  ---      ---       LVL=0

      0100320FH   BLOCK     CODE     ---       LVL=0
      0100320FH   LINE      CODE     ---       #246
      0100320FH   LINE      CODE     ---       #247
      0100320FH   LINE      CODE     ---       #248
      0100321DH   LINE      CODE     ---       #249
      ---         BLOCKEND  ---      ---       LVL=0

      ---         MODULE    ---      ---       KEY
      02000188H   PUBLIC    XDATA    BYTE      scan_long_key_timer
      02000186H   PUBLIC    XDATA    WORD      KeyMsg
      02000185H   PUBLIC    XDATA    BYTE      KEY_Mode
      02000184H   PUBLIC    XDATA    BYTE      gp_10ms_timer
      0100003EH   PUBLIC    CODE     ---       INT4_ISR
      0100000EH   PUBLIC    CODE     ---       INT2_ISR
      010027D7H   PUBLIC    CODE     ---       KEY_Scan
      010023A0H   PUBLIC    CODE     ---       _scan_get_msg
      010031FDH   PUBLIC    CODE     ---       INT4_Init
      010031EBH   PUBLIC    CODE     ---       INT2_Init
      00000080H   SFRSYM    DATA     BYTE      P0
      00000090H   SFRSYM    DATA     BYTE      P1
      000000A0H   SFRSYM    DATA     BYTE      P2
      000000B0H   SFRSYM    DATA     BYTE      P3
      000000D0H.6 SFRSYM    DATA     BIT       AC
      000000A5H   SFRSYM    DATA     BYTE      SPCON
      000000A8H.7 SFRSYM    DATA     BIT       EA
      000000C8H.0 SFRSYM    DATA     BIT       T2P0
      000000C8H.1 SFRSYM    DATA     BIT       T2P1
      000000C8H.4 SFRSYM    DATA     BIT       T2R0
      000000DAH   SFRSYM    DATA     BYTE      PWMEN
      00000086H   SFRSYM    DATA     BYTE      PWCON
      000000C8H.5 SFRSYM    DATA     BIT       T2R1
      000000A7H   SFRSYM    DATA     BYTE      SPSTA
      00000083H   SFRSYM    DATA     BYTE      DP0H
      000000A8H   SFRSYM    DATA     BYTE      IE
      00000085H   SFRSYM    DATA     BYTE      DP1H
      00000082H   SFRSYM    DATA     BYTE      DP0L
      000000CBH   SFRSYM    DATA     BYTE      T2CH
      000000B3H   SFRSYM    DATA     BYTE      I2CADM
      00000084H   SFRSYM    DATA     BYTE      DP1L
      000000C8H.3 SFRSYM    DATA     BIT       T2IE
      000000CAH   SFRSYM    DATA     BYTE      T2CL
      000000B2H   SFRSYM    DATA     BYTE      I2CADR
      000000B8H   SFRSYM    DATA     BYTE      IP
      000000B7H   SFRSYM    DATA     BYTE      I2CFLG
      000000B5H   SFRSYM    DATA     BYTE      I2CDAT
      000000D0H.7 SFRSYM    DATA     BIT       CY
      000000BBH   SFRSYM    DATA     BYTE      ADCFGH
      000000DCH   SFRSYM    DATA     BYTE      PWMCMAX
      000000B1H   SFRSYM    DATA     BYTE      I2CCON
      000000D1H   SFRSYM    DATA     BYTE      PWMDIVH
      000000BAH   SFRSYM    DATA     BYTE      ADCFGL
      00000081H   SFRSYM    DATA     BYTE      SP
      000000F9H   SFRSYM    DATA     BYTE      EPIE
LX51 LINKER/LOCATER V4.66.87.0                                                        03/10/2021  11:45:25  PAGE 44


      000000D0H.2 SFRSYM    DATA     BIT       OV
      000000FAH   SFRSYM    DATA     BYTE      EPIF
      000000DFH   SFRSYM    DATA     BYTE      PWMDIVL
      000000B6H   SFRSYM    DATA     BYTE      I2CSTA
      000000E8H   SFRSYM    DATA     BYTE      EXIE
      000000D3H   SFRSYM    DATA     BYTE      PWMDUTH
      0000008FH   SFRSYM    DATA     BYTE      IT0CON
      00000080H.0 SFRSYM    DATA     BIT       P00
      000000D2H   SFRSYM    DATA     BYTE      PWMDUTL
      0000008EH   SFRSYM    DATA     BYTE      IT1CON
      00000090H.0 SFRSYM    DATA     BIT       P10
      00000080H.1 SFRSYM    DATA     BIT       P01
      0000009DH   SFRSYM    DATA     BYTE      S1RELH
      00000087H   SFRSYM    DATA     BYTE      PCON
      000000A0H.0 SFRSYM    DATA     BIT       P20
      00000090H.1 SFRSYM    DATA     BIT       P11
      00000080H.2 SFRSYM    DATA     BIT       P02
      000000E8H.0 SFRSYM    DATA     BIT       INT2EN
      000000A4H   SFRSYM    DATA     BYTE      S2RELH
      000000B0H.0 SFRSYM    DATA     BIT       P30
      00000090H.2 SFRSYM    DATA     BIT       P12
      00000080H.3 SFRSYM    DATA     BIT       P03
      000000E8H.1 SFRSYM    DATA     BIT       INT3EN
      00000090H.3 SFRSYM    DATA     BIT       P13
      00000080H.4 SFRSYM    DATA     BIT       P04
      000000E8H.2 SFRSYM    DATA     BIT       INT4EN
      00000090H.4 SFRSYM    DATA     BIT       P14
      00000080H.5 SFRSYM    DATA     BIT       P05
      000000E8H.3 SFRSYM    DATA     BIT       INT5EN
      0000009CH   SFRSYM    DATA     BYTE      S1RELL
      00000089H   SFRSYM    DATA     BYTE      TMOD
      00000088H   SFRSYM    DATA     BYTE      TCON
      00000090H.5 SFRSYM    DATA     BIT       P15
      00000080H.6 SFRSYM    DATA     BIT       P06
      000000E8H.4 SFRSYM    DATA     BIT       INT6EN
      000000A3H   SFRSYM    DATA     BYTE      S2RELL
      00000090H.6 SFRSYM    DATA     BIT       P16
      00000080H.7 SFRSYM    DATA     BIT       P07
      000000E8H.5 SFRSYM    DATA     BIT       INT7EN
      000000C8H.2 SFRSYM    DATA     BIT       UCKS
      000000F8H   SFRSYM    DATA     BYTE      EXIP
      00000090H.7 SFRSYM    DATA     BIT       P17
      000000E8H.6 SFRSYM    DATA     BIT       INT8EN
      000000E8H.7 SFRSYM    DATA     BIT       INT9EN
      00000088H.1 SFRSYM    DATA     BIT       IE0
      00000088H.3 SFRSYM    DATA     BIT       IE1
      000000F0H   SFRSYM    DATA     BYTE      B
      000000E7H   SFRSYM    DATA     BYTE      MDUDAT
      000000DEH   SFRSYM    DATA     BYTE      PWMCFG
      000000D4H   SFRSYM    DATA     BYTE      PWMAIF
      000000E0H   SFRSYM    DATA     BYTE      ACC
      000000D5H   SFRSYM    DATA     BYTE      PWMBIF
      000000A8H.4 SFRSYM    DATA     BIT       ES0
      000000EFH   SFRSYM    DATA     BYTE      LVDCON
      000000E6H   SFRSYM    DATA     BYTE      MDUCON
      000000D6H   SFRSYM    DATA     BYTE      PWMCIF
      000000A8H.1 SFRSYM    DATA     BIT       ET0
      000000A8H.6 SFRSYM    DATA     BIT       ES1
      000000D7H   SFRSYM    DATA     BYTE      PWMDIF
      000000A8H.3 SFRSYM    DATA     BIT       ET1
      00000088H.5 SFRSYM    DATA     BIT       TF0
      000000FDH   SFRSYM    DATA     BYTE      IDLSTH
      000000A8H.5 SFRSYM    DATA     BIT       ET2
      00000088H.7 SFRSYM    DATA     BIT       TF1
      000000C8H.7 SFRSYM    DATA     BIT       TF2
LX51 LINKER/LOCATER V4.66.87.0                                                        03/10/2021  11:45:25  PAGE 45


      0000008CH   SFRSYM    DATA     BYTE      TH0
      000000A8H.0 SFRSYM    DATA     BIT       EX0
      00000088H.0 SFRSYM    DATA     BIT       IT0
      0000008DH   SFRSYM    DATA     BYTE      TH1
      000000A8H.2 SFRSYM    DATA     BIT       EX1
      00000088H.2 SFRSYM    DATA     BIT       IT1
      000000FCH   SFRSYM    DATA     BYTE      IDLSTL
      000000CDH   SFRSYM    DATA     BYTE      TH2
      000000D0H.0 SFRSYM    DATA     BIT       P
      0000008AH   SFRSYM    DATA     BYTE      TL0
      0000008BH   SFRSYM    DATA     BYTE      TL1
      000000CCH   SFRSYM    DATA     BYTE      TL2
      000000B8H.4 SFRSYM    DATA     BIT       PS0
      000000B8H.1 SFRSYM    DATA     BIT       PT0
      000000B8H.6 SFRSYM    DATA     BIT       PS1
      000000B4H   SFRSYM    DATA     BYTE      I2CCR
      000000B8H.3 SFRSYM    DATA     BIT       PT1
      000000D0H.3 SFRSYM    DATA     BIT       RS0
      000000BDH   SFRSYM    DATA     BYTE      ADCDH
      000000B8H.5 SFRSYM    DATA     BIT       PT2
      00000088H.4 SFRSYM    DATA     BIT       TR0
      000000D0H.4 SFRSYM    DATA     BIT       RS1
      000000DDH   SFRSYM    DATA     BYTE      PWMCON
      00000088H.6 SFRSYM    DATA     BIT       TR1
      000000ADH   SFRSYM    DATA     BYTE      WDVTHH
      000000C8H.6 SFRSYM    DATA     BIT       TR2
      000000B8H.0 SFRSYM    DATA     BIT       PX0
      000000B8H.2 SFRSYM    DATA     BIT       PX1
      000000BCH   SFRSYM    DATA     BYTE      ADCDL
      000000ACH   SFRSYM    DATA     BYTE      WDVTHL
      000000DBH   SFRSYM    DATA     BYTE      PWMUPD
      0000009BH   SFRSYM    DATA     BYTE      S1BUF
      000000A2H   SFRSYM    DATA     BYTE      S2BUF
      0000009AH   SFRSYM    DATA     BYTE      S1CON
      000000B9H   SFRSYM    DATA     BYTE      ADCON
      000000A1H   SFRSYM    DATA     BYTE      S2CON
      000000D0H.1 SFRSYM    DATA     BIT       DPS
      000000C9H   SFRSYM    DATA     BYTE      T2MOD
      000000C8H   SFRSYM    DATA     BYTE      T2CON
      000000FFH   SFRSYM    DATA     BYTE      STPSTH
      000000FEH   SFRSYM    DATA     BYTE      STPSTL
      000000D0H.5 SFRSYM    DATA     BIT       F0
      000000ABH   SFRSYM    DATA     BYTE      WDFLG
      000000FBH   SFRSYM    DATA     BYTE      EPCON
      000000F7H   SFRSYM    DATA     BYTE      INDEX
      000000D0H   SFRSYM    DATA     BYTE      PSW
      000000AAH   SFRSYM    DATA     BYTE      WDCON
      000000A6H   SFRSYM    DATA     BYTE      SPDAT

      010031EBH   BLOCK     CODE     ---       LVL=0
      010031EBH   LINE      CODE     ---       #19
      010031EBH   LINE      CODE     ---       #20
      010031EBH   LINE      CODE     ---       #21
      010031F1H   LINE      CODE     ---       #22
      010031F4H   LINE      CODE     ---       #23
      010031F7H   LINE      CODE     ---       #24
      010031F9H   LINE      CODE     ---       #25
      010031FCH   LINE      CODE     ---       #26
      ---         BLOCKEND  ---      ---       LVL=0

      010031FDH   BLOCK     CODE     ---       LVL=0
      010031FDH   LINE      CODE     ---       #35
      010031FDH   LINE      CODE     ---       #36
      010031FDH   LINE      CODE     ---       #37
      01003203H   LINE      CODE     ---       #38
LX51 LINKER/LOCATER V4.66.87.0                                                        03/10/2021  11:45:25  PAGE 46


      01003206H   LINE      CODE     ---       #39
      01003209H   LINE      CODE     ---       #40
      0100320BH   LINE      CODE     ---       #41
      0100320EH   LINE      CODE     ---       #42
      ---         BLOCKEND  ---      ---       LVL=0

      010023A0H   BLOCK     CODE     ---       LVL=0
      010023A0H   BLOCK     CODE     NEAR LAB  LVL=1
      02000181H   SYMBOL    XDATA    BYTE      read_scan_key_timer
      02000182H   SYMBOL    XDATA    WORD      last_scan_key
      00000020H.4 SYMBOL    BIT      BIT       scan_monitor
      00000020H.5 SYMBOL    BIT      BIT       f_scan_long
      00000006H   SYMBOL    DATA     WORD      scan_key
      00000004H   SYMBOL    DATA     WORD      scan_msg
      ---         BLOCKEND  ---      ---       LVL=1
      010023A0H   LINE      CODE     ---       #50
      010023A0H   LINE      CODE     ---       #51
      010023A0H   LINE      CODE     ---       #55
      010023A3H   LINE      CODE     ---       #56
      010023A5H   LINE      CODE     ---       #60
      010023ADH   LINE      CODE     ---       #61
      010023B0H   LINE      CODE     ---       #62
      010023B0H   LINE      CODE     ---       #64
      010023B1H   LINE      CODE     ---       #65
      010023B3H   LINE      CODE     ---       #66
      010023B6H   LINE      CODE     ---       #67
      010023B6H   LINE      CODE     ---       #69
      010023BAH   LINE      CODE     ---       #70
      010023BCH   LINE      CODE     ---       #72
      010023BCH   LINE      CODE     ---       #73
      010023BFH   LINE      CODE     ---       #74
      010023BFH   LINE      CODE     ---       #75
      010023C2H   LINE      CODE     ---       #76
      010023C2H   LINE      CODE     ---       #77
      010023C6H   LINE      CODE     ---       #78
      010023C6H   LINE      CODE     ---       #79
      010023D5H   LINE      CODE     ---       #80
      010023D5H   LINE      CODE     ---       #81
      010023D8H   LINE      CODE     ---       #82
      010023DEH   LINE      CODE     ---       #83
      010023E0H   LINE      CODE     ---       #84
      010023E2H   LINE      CODE     ---       #85
      010023E4H   LINE      CODE     ---       #87
      010023E4H   LINE      CODE     ---       #88
      010023ECH   LINE      CODE     ---       #89
      010023ECH   LINE      CODE     ---       #90
      010023ECH   LINE      CODE     ---       #91
      010023EEH   LINE      CODE     ---       #93
      010023EEH   LINE      CODE     ---       #94
      010023F2H   LINE      CODE     ---       #95
      010023F2H   LINE      CODE     ---       #96
      010023F8H   LINE      CODE     ---       #97
      010023F8H   LINE      CODE     ---       #98
      010023FBH   LINE      CODE     ---       #99
      01002402H   LINE      CODE     ---       #100
      01002402H   LINE      CODE     ---       #101
      01002408H   LINE      CODE     ---       #102
      0100240AH   LINE      CODE     ---       #104
      0100240AH   LINE      CODE     ---       #105
      01002410H   LINE      CODE     ---       #106
      01002412H   LINE      CODE     ---       #107
      01002412H   LINE      CODE     ---       #108
      01002412H   LINE      CODE     ---       #109
      01002414H   LINE      CODE     ---       #111
      01002414H   LINE      CODE     ---       #112
LX51 LINKER/LOCATER V4.66.87.0                                                        03/10/2021  11:45:25  PAGE 47


      0100241BH   LINE      CODE     ---       #113
      0100241BH   LINE      CODE     ---       #114
      0100241DH   LINE      CODE     ---       #115
      0100241FH   LINE      CODE     ---       #117
      0100241FH   LINE      CODE     ---       #118
      01002425H   LINE      CODE     ---       #119
      01002425H   LINE      CODE     ---       #120
      0100242CH   LINE      CODE     ---       #121
      0100242EH   LINE      CODE     ---       #122
      0100242EH   LINE      CODE     ---       #123
      0100242EH   LINE      CODE     ---       #124
      0100242EH   LINE      CODE     ---       #127
      01002432H   LINE      CODE     ---       #129
      ---         BLOCKEND  ---      ---       LVL=0

      010027D7H   BLOCK     CODE     ---       LVL=0
      010027D7H   LINE      CODE     ---       #131
      010027D7H   LINE      CODE     ---       #132
      010027D7H   LINE      CODE     ---       #133
      010027E5H   LINE      CODE     ---       #134
      010027E5H   LINE      CODE     ---       #135
      010027ECH   LINE      CODE     ---       #137
      010027EEH   LINE      CODE     ---       #138
      010027F4H   LINE      CODE     ---       #139
      010027F4H   LINE      CODE     ---       #140
      010027FBH   LINE      CODE     ---       #142
      010027FEH   LINE      CODE     ---       #144
      010027FEH   LINE      CODE     ---       #146
      0100280AH   LINE      CODE     ---       #147
      0100280AH   LINE      CODE     ---       #148
      01002811H   LINE      CODE     ---       #150
      0100281EH   LINE      CODE     ---       #151
      0100281EH   LINE      CODE     ---       #152
      01002820H   LINE      CODE     ---       #153
      01002820H   LINE      CODE     ---       #154
      01002828H   LINE      CODE     ---       #155
      01002830H   LINE      CODE     ---       #156
      01002830H   LINE      CODE     ---       #157
      0100283CH   LINE      CODE     ---       #158
      0100283CH   LINE      CODE     ---       #159
      01002843H   LINE      CODE     ---       #162
      01002843H   LINE      CODE     ---       #163
      ---         BLOCKEND  ---      ---       LVL=0

      0100000EH   BLOCK     CODE     ---       LVL=0
      0100000EH   LINE      CODE     ---       #169
      01000010H   LINE      CODE     ---       #171
      01000015H   LINE      CODE     ---       #172
      01000015H   LINE      CODE     ---       #173
      01000018H   LINE      CODE     ---       #174
      01000018H   LINE      CODE     ---       #175
      ---         BLOCKEND  ---      ---       LVL=0

      0100003EH   BLOCK     CODE     ---       LVL=0
      0100003EH   LINE      CODE     ---       #178
      01000040H   LINE      CODE     ---       #180
      01000045H   LINE      CODE     ---       #181
      01000045H   LINE      CODE     ---       #182
      01000048H   LINE      CODE     ---       #183
      01000048H   LINE      CODE     ---       #184
      ---         BLOCKEND  ---      ---       LVL=0

      ---         MODULE    ---      ---       PWM
      00000080H   SFRSYM    DATA     BYTE      P0
      00000090H   SFRSYM    DATA     BYTE      P1
LX51 LINKER/LOCATER V4.66.87.0                                                        03/10/2021  11:45:25  PAGE 48


      000000A0H   SFRSYM    DATA     BYTE      P2
      000000B0H   SFRSYM    DATA     BYTE      P3
      000000D0H.6 SFRSYM    DATA     BIT       AC
      000000A5H   SFRSYM    DATA     BYTE      SPCON
      000000A8H.7 SFRSYM    DATA     BIT       EA
      000000C8H.0 SFRSYM    DATA     BIT       T2P0
      000000C8H.1 SFRSYM    DATA     BIT       T2P1
      000000C8H.4 SFRSYM    DATA     BIT       T2R0
      000000DAH   SFRSYM    DATA     BYTE      PWMEN
      00000086H   SFRSYM    DATA     BYTE      PWCON
      000000C8H.5 SFRSYM    DATA     BIT       T2R1
      000000A7H   SFRSYM    DATA     BYTE      SPSTA
      00000083H   SFRSYM    DATA     BYTE      DP0H
      000000A8H   SFRSYM    DATA     BYTE      IE
      00000085H   SFRSYM    DATA     BYTE      DP1H
      00000082H   SFRSYM    DATA     BYTE      DP0L
      000000CBH   SFRSYM    DATA     BYTE      T2CH
      000000B3H   SFRSYM    DATA     BYTE      I2CADM
      00000084H   SFRSYM    DATA     BYTE      DP1L
      000000C8H.3 SFRSYM    DATA     BIT       T2IE
      000000CAH   SFRSYM    DATA     BYTE      T2CL
      000000B2H   SFRSYM    DATA     BYTE      I2CADR
      000000B8H   SFRSYM    DATA     BYTE      IP
      000000B7H   SFRSYM    DATA     BYTE      I2CFLG
      000000B5H   SFRSYM    DATA     BYTE      I2CDAT
      000000D0H.7 SFRSYM    DATA     BIT       CY
      000000BBH   SFRSYM    DATA     BYTE      ADCFGH
      000000DCH   SFRSYM    DATA     BYTE      PWMCMAX
      000000B1H   SFRSYM    DATA     BYTE      I2CCON
      000000D1H   SFRSYM    DATA     BYTE      PWMDIVH
      000000BAH   SFRSYM    DATA     BYTE      ADCFGL
      00000081H   SFRSYM    DATA     BYTE      SP
      000000F9H   SFRSYM    DATA     BYTE      EPIE
      000000D0H.2 SFRSYM    DATA     BIT       OV
      000000FAH   SFRSYM    DATA     BYTE      EPIF
      000000DFH   SFRSYM    DATA     BYTE      PWMDIVL
      000000B6H   SFRSYM    DATA     BYTE      I2CSTA
      000000E8H   SFRSYM    DATA     BYTE      EXIE
      000000D3H   SFRSYM    DATA     BYTE      PWMDUTH
      0000008FH   SFRSYM    DATA     BYTE      IT0CON
      00000080H.0 SFRSYM    DATA     BIT       P00
      000000D2H   SFRSYM    DATA     BYTE      PWMDUTL
      0000008EH   SFRSYM    DATA     BYTE      IT1CON
      00000090H.0 SFRSYM    DATA     BIT       P10
      00000080H.1 SFRSYM    DATA     BIT       P01
      0000009DH   SFRSYM    DATA     BYTE      S1RELH
      00000087H   SFRSYM    DATA     BYTE      PCON
      000000A0H.0 SFRSYM    DATA     BIT       P20
      00000090H.1 SFRSYM    DATA     BIT       P11
      00000080H.2 SFRSYM    DATA     BIT       P02
      000000E8H.0 SFRSYM    DATA     BIT       INT2EN
      000000A4H   SFRSYM    DATA     BYTE      S2RELH
      000000B0H.0 SFRSYM    DATA     BIT       P30
      00000090H.2 SFRSYM    DATA     BIT       P12
      00000080H.3 SFRSYM    DATA     BIT       P03
      000000E8H.1 SFRSYM    DATA     BIT       INT3EN
      00000090H.3 SFRSYM    DATA     BIT       P13
      00000080H.4 SFRSYM    DATA     BIT       P04
      000000E8H.2 SFRSYM    DATA     BIT       INT4EN
      00000090H.4 SFRSYM    DATA     BIT       P14
      00000080H.5 SFRSYM    DATA     BIT       P05
      000000E8H.3 SFRSYM    DATA     BIT       INT5EN
      0000009CH   SFRSYM    DATA     BYTE      S1RELL
      00000089H   SFRSYM    DATA     BYTE      TMOD
      00000088H   SFRSYM    DATA     BYTE      TCON
LX51 LINKER/LOCATER V4.66.87.0                                                        03/10/2021  11:45:25  PAGE 49


      00000090H.5 SFRSYM    DATA     BIT       P15
      00000080H.6 SFRSYM    DATA     BIT       P06
      000000E8H.4 SFRSYM    DATA     BIT       INT6EN
      000000A3H   SFRSYM    DATA     BYTE      S2RELL
      00000090H.6 SFRSYM    DATA     BIT       P16
      00000080H.7 SFRSYM    DATA     BIT       P07
      000000E8H.5 SFRSYM    DATA     BIT       INT7EN
      000000C8H.2 SFRSYM    DATA     BIT       UCKS
      000000F8H   SFRSYM    DATA     BYTE      EXIP
      00000090H.7 SFRSYM    DATA     BIT       P17
      000000E8H.6 SFRSYM    DATA     BIT       INT8EN
      000000E8H.7 SFRSYM    DATA     BIT       INT9EN
      00000088H.1 SFRSYM    DATA     BIT       IE0
      00000088H.3 SFRSYM    DATA     BIT       IE1
      000000F0H   SFRSYM    DATA     BYTE      B
      000000E7H   SFRSYM    DATA     BYTE      MDUDAT
      000000DEH   SFRSYM    DATA     BYTE      PWMCFG
      000000D4H   SFRSYM    DATA     BYTE      PWMAIF
      000000E0H   SFRSYM    DATA     BYTE      ACC
      000000D5H   SFRSYM    DATA     BYTE      PWMBIF
      000000A8H.4 SFRSYM    DATA     BIT       ES0
      000000EFH   SFRSYM    DATA     BYTE      LVDCON
      000000E6H   SFRSYM    DATA     BYTE      MDUCON
      000000D6H   SFRSYM    DATA     BYTE      PWMCIF
      000000A8H.1 SFRSYM    DATA     BIT       ET0
      000000A8H.6 SFRSYM    DATA     BIT       ES1
      000000D7H   SFRSYM    DATA     BYTE      PWMDIF
      000000A8H.3 SFRSYM    DATA     BIT       ET1
      00000088H.5 SFRSYM    DATA     BIT       TF0
      000000FDH   SFRSYM    DATA     BYTE      IDLSTH
      000000A8H.5 SFRSYM    DATA     BIT       ET2
      00000088H.7 SFRSYM    DATA     BIT       TF1
      000000C8H.7 SFRSYM    DATA     BIT       TF2
      0000008CH   SFRSYM    DATA     BYTE      TH0
      000000A8H.0 SFRSYM    DATA     BIT       EX0
      00000088H.0 SFRSYM    DATA     BIT       IT0
      0000008DH   SFRSYM    DATA     BYTE      TH1
      000000A8H.2 SFRSYM    DATA     BIT       EX1
      00000088H.2 SFRSYM    DATA     BIT       IT1
      000000FCH   SFRSYM    DATA     BYTE      IDLSTL
      000000CDH   SFRSYM    DATA     BYTE      TH2
      000000D0H.0 SFRSYM    DATA     BIT       P
      0000008AH   SFRSYM    DATA     BYTE      TL0
      0000008BH   SFRSYM    DATA     BYTE      TL1
      000000CCH   SFRSYM    DATA     BYTE      TL2
      000000B8H.4 SFRSYM    DATA     BIT       PS0
      000000B8H.1 SFRSYM    DATA     BIT       PT0
      000000B8H.6 SFRSYM    DATA     BIT       PS1
      000000B4H   SFRSYM    DATA     BYTE      I2CCR
      000000B8H.3 SFRSYM    DATA     BIT       PT1
      000000D0H.3 SFRSYM    DATA     BIT       RS0
      000000BDH   SFRSYM    DATA     BYTE      ADCDH
      000000B8H.5 SFRSYM    DATA     BIT       PT2
      00000088H.4 SFRSYM    DATA     BIT       TR0
      000000D0H.4 SFRSYM    DATA     BIT       RS1
      000000DDH   SFRSYM    DATA     BYTE      PWMCON
      00000088H.6 SFRSYM    DATA     BIT       TR1
      000000ADH   SFRSYM    DATA     BYTE      WDVTHH
      000000C8H.6 SFRSYM    DATA     BIT       TR2
      000000B8H.0 SFRSYM    DATA     BIT       PX0
      000000B8H.2 SFRSYM    DATA     BIT       PX1
      000000BCH   SFRSYM    DATA     BYTE      ADCDL
      000000ACH   SFRSYM    DATA     BYTE      WDVTHL
      000000DBH   SFRSYM    DATA     BYTE      PWMUPD
      0000009BH   SFRSYM    DATA     BYTE      S1BUF
LX51 LINKER/LOCATER V4.66.87.0                                                        03/10/2021  11:45:25  PAGE 50


      000000A2H   SFRSYM    DATA     BYTE      S2BUF
      0000009AH   SFRSYM    DATA     BYTE      S1CON
      000000B9H   SFRSYM    DATA     BYTE      ADCON
      000000A1H   SFRSYM    DATA     BYTE      S2CON
      000000D0H.1 SFRSYM    DATA     BIT       DPS
      000000C9H   SFRSYM    DATA     BYTE      T2MOD
      000000C8H   SFRSYM    DATA     BYTE      T2CON
      000000FFH   SFRSYM    DATA     BYTE      STPSTH
      000000FEH   SFRSYM    DATA     BYTE      STPSTL
      000000D0H.5 SFRSYM    DATA     BIT       F0
      000000ABH   SFRSYM    DATA     BYTE      WDFLG
      000000FBH   SFRSYM    DATA     BYTE      EPCON
      000000F7H   SFRSYM    DATA     BYTE      INDEX
      000000D0H   SFRSYM    DATA     BYTE      PSW
      000000AAH   SFRSYM    DATA     BYTE      WDCON
      000000A6H   SFRSYM    DATA     BYTE      SPDAT
      00000002H   SYMBOL    DATA     WORD      PWMDIV_V
      00000004H   SYMBOL    DATA     WORD      PWMDUT_V

      ---         MODULE    ---      ---       MYI2C
      01002B46H   PUBLIC    CODE     ---       _IIC_Read_Byte
      01002A9EH   PUBLIC    CODE     ---       _IIC_Send_Byte
      0100315CH   PUBLIC    CODE     ---       IIC_NAck
      0100313FH   PUBLIC    CODE     ---       IIC_Ack
      01002CE9H   PUBLIC    CODE     ---       IIC_Wait_Ack
      01003196H   PUBLIC    CODE     ---       IIC_Stop
      01003014H   PUBLIC    CODE     ---       IIC_Start
      0100323AH   PUBLIC    CODE     ---       IIC_GPIO_Init
      00000080H   SFRSYM    DATA     BYTE      P0
      00000090H   SFRSYM    DATA     BYTE      P1
      000000A0H   SFRSYM    DATA     BYTE      P2
      000000B0H   SFRSYM    DATA     BYTE      P3
      000000D0H.6 SFRSYM    DATA     BIT       AC
      000000A5H   SFRSYM    DATA     BYTE      SPCON
      000000A8H.7 SFRSYM    DATA     BIT       EA
      000000C8H.0 SFRSYM    DATA     BIT       T2P0
      000000C8H.1 SFRSYM    DATA     BIT       T2P1
      000000C8H.4 SFRSYM    DATA     BIT       T2R0
      000000DAH   SFRSYM    DATA     BYTE      PWMEN
      00000086H   SFRSYM    DATA     BYTE      PWCON
      000000C8H.5 SFRSYM    DATA     BIT       T2R1
      000000A7H   SFRSYM    DATA     BYTE      SPSTA
      00000083H   SFRSYM    DATA     BYTE      DP0H
      000000A8H   SFRSYM    DATA     BYTE      IE
      00000085H   SFRSYM    DATA     BYTE      DP1H
      00000082H   SFRSYM    DATA     BYTE      DP0L
      000000CBH   SFRSYM    DATA     BYTE      T2CH
      000000B3H   SFRSYM    DATA     BYTE      I2CADM
      00000084H   SFRSYM    DATA     BYTE      DP1L
      000000C8H.3 SFRSYM    DATA     BIT       T2IE
      000000CAH   SFRSYM    DATA     BYTE      T2CL
      000000B2H   SFRSYM    DATA     BYTE      I2CADR
      000000B8H   SFRSYM    DATA     BYTE      IP
      000000B7H   SFRSYM    DATA     BYTE      I2CFLG
      000000B5H   SFRSYM    DATA     BYTE      I2CDAT
      000000D0H.7 SFRSYM    DATA     BIT       CY
      000000BBH   SFRSYM    DATA     BYTE      ADCFGH
      000000DCH   SFRSYM    DATA     BYTE      PWMCMAX
      000000B1H   SFRSYM    DATA     BYTE      I2CCON
      000000D1H   SFRSYM    DATA     BYTE      PWMDIVH
      000000BAH   SFRSYM    DATA     BYTE      ADCFGL
      00000081H   SFRSYM    DATA     BYTE      SP
      000000F9H   SFRSYM    DATA     BYTE      EPIE
      000000D0H.2 SFRSYM    DATA     BIT       OV
      000000FAH   SFRSYM    DATA     BYTE      EPIF
LX51 LINKER/LOCATER V4.66.87.0                                                        03/10/2021  11:45:25  PAGE 51


      000000DFH   SFRSYM    DATA     BYTE      PWMDIVL
      000000B6H   SFRSYM    DATA     BYTE      I2CSTA
      000000E8H   SFRSYM    DATA     BYTE      EXIE
      000000D3H   SFRSYM    DATA     BYTE      PWMDUTH
      0000008FH   SFRSYM    DATA     BYTE      IT0CON
      00000080H.0 SFRSYM    DATA     BIT       P00
      000000D2H   SFRSYM    DATA     BYTE      PWMDUTL
      0000008EH   SFRSYM    DATA     BYTE      IT1CON
      00000090H.0 SFRSYM    DATA     BIT       P10
      00000080H.1 SFRSYM    DATA     BIT       P01
      0000009DH   SFRSYM    DATA     BYTE      S1RELH
      00000087H   SFRSYM    DATA     BYTE      PCON
      000000A0H.0 SFRSYM    DATA     BIT       P20
      00000090H.1 SFRSYM    DATA     BIT       P11
      00000080H.2 SFRSYM    DATA     BIT       P02
      000000E8H.0 SFRSYM    DATA     BIT       INT2EN
      000000A4H   SFRSYM    DATA     BYTE      S2RELH
      000000B0H.0 SFRSYM    DATA     BIT       P30
      00000090H.2 SFRSYM    DATA     BIT       P12
      00000080H.3 SFRSYM    DATA     BIT       P03
      000000E8H.1 SFRSYM    DATA     BIT       INT3EN
      00000090H.3 SFRSYM    DATA     BIT       P13
      00000080H.4 SFRSYM    DATA     BIT       P04
      000000E8H.2 SFRSYM    DATA     BIT       INT4EN
      00000090H.4 SFRSYM    DATA     BIT       P14
      00000080H.5 SFRSYM    DATA     BIT       P05
      000000E8H.3 SFRSYM    DATA     BIT       INT5EN
      0000009CH   SFRSYM    DATA     BYTE      S1RELL
      00000089H   SFRSYM    DATA     BYTE      TMOD
      00000088H   SFRSYM    DATA     BYTE      TCON
      00000090H.5 SFRSYM    DATA     BIT       P15
      00000080H.6 SFRSYM    DATA     BIT       P06
      000000E8H.4 SFRSYM    DATA     BIT       INT6EN
      000000A3H   SFRSYM    DATA     BYTE      S2RELL
      00000090H.6 SFRSYM    DATA     BIT       P16
      00000080H.7 SFRSYM    DATA     BIT       P07
      000000E8H.5 SFRSYM    DATA     BIT       INT7EN
      000000C8H.2 SFRSYM    DATA     BIT       UCKS
      000000F8H   SFRSYM    DATA     BYTE      EXIP
      00000090H.7 SFRSYM    DATA     BIT       P17
      000000E8H.6 SFRSYM    DATA     BIT       INT8EN
      000000E8H.7 SFRSYM    DATA     BIT       INT9EN
      00000088H.1 SFRSYM    DATA     BIT       IE0
      00000088H.3 SFRSYM    DATA     BIT       IE1
      000000F0H   SFRSYM    DATA     BYTE      B
      000000E7H   SFRSYM    DATA     BYTE      MDUDAT
      000000DEH   SFRSYM    DATA     BYTE      PWMCFG
      000000D4H   SFRSYM    DATA     BYTE      PWMAIF
      000000E0H   SFRSYM    DATA     BYTE      ACC
      000000D5H   SFRSYM    DATA     BYTE      PWMBIF
      000000A8H.4 SFRSYM    DATA     BIT       ES0
      000000EFH   SFRSYM    DATA     BYTE      LVDCON
      000000E6H   SFRSYM    DATA     BYTE      MDUCON
      000000D6H   SFRSYM    DATA     BYTE      PWMCIF
      000000A8H.1 SFRSYM    DATA     BIT       ET0
      000000A8H.6 SFRSYM    DATA     BIT       ES1
      000000D7H   SFRSYM    DATA     BYTE      PWMDIF
      000000A8H.3 SFRSYM    DATA     BIT       ET1
      00000088H.5 SFRSYM    DATA     BIT       TF0
      000000FDH   SFRSYM    DATA     BYTE      IDLSTH
      000000A8H.5 SFRSYM    DATA     BIT       ET2
      00000088H.7 SFRSYM    DATA     BIT       TF1
      000000C8H.7 SFRSYM    DATA     BIT       TF2
      0000008CH   SFRSYM    DATA     BYTE      TH0
      000000A8H.0 SFRSYM    DATA     BIT       EX0
LX51 LINKER/LOCATER V4.66.87.0                                                        03/10/2021  11:45:25  PAGE 52


      00000088H.0 SFRSYM    DATA     BIT       IT0
      0000008DH   SFRSYM    DATA     BYTE      TH1
      000000A8H.2 SFRSYM    DATA     BIT       EX1
      00000088H.2 SFRSYM    DATA     BIT       IT1
      000000FCH   SFRSYM    DATA     BYTE      IDLSTL
      000000CDH   SFRSYM    DATA     BYTE      TH2
      000000D0H.0 SFRSYM    DATA     BIT       P
      0000008AH   SFRSYM    DATA     BYTE      TL0
      0000008BH   SFRSYM    DATA     BYTE      TL1
      000000CCH   SFRSYM    DATA     BYTE      TL2
      000000B8H.4 SFRSYM    DATA     BIT       PS0
      000000B8H.1 SFRSYM    DATA     BIT       PT0
      000000B8H.6 SFRSYM    DATA     BIT       PS1
      000000B4H   SFRSYM    DATA     BYTE      I2CCR
      000000B8H.3 SFRSYM    DATA     BIT       PT1
      000000D0H.3 SFRSYM    DATA     BIT       RS0
      000000BDH   SFRSYM    DATA     BYTE      ADCDH
      000000B8H.5 SFRSYM    DATA     BIT       PT2
      00000088H.4 SFRSYM    DATA     BIT       TR0
      000000D0H.4 SFRSYM    DATA     BIT       RS1
      000000DDH   SFRSYM    DATA     BYTE      PWMCON
      00000088H.6 SFRSYM    DATA     BIT       TR1
      000000ADH   SFRSYM    DATA     BYTE      WDVTHH
      000000C8H.6 SFRSYM    DATA     BIT       TR2
      000000B8H.0 SFRSYM    DATA     BIT       PX0
      000000B8H.2 SFRSYM    DATA     BIT       PX1
      000000BCH   SFRSYM    DATA     BYTE      ADCDL
      000000ACH   SFRSYM    DATA     BYTE      WDVTHL
      000000DBH   SFRSYM    DATA     BYTE      PWMUPD
      0000009BH   SFRSYM    DATA     BYTE      S1BUF
      000000A2H   SFRSYM    DATA     BYTE      S2BUF
      0000009AH   SFRSYM    DATA     BYTE      S1CON
      000000B9H   SFRSYM    DATA     BYTE      ADCON
      000000A1H   SFRSYM    DATA     BYTE      S2CON
      000000D0H.1 SFRSYM    DATA     BIT       DPS
      000000C9H   SFRSYM    DATA     BYTE      T2MOD
      000000C8H   SFRSYM    DATA     BYTE      T2CON
      000000FFH   SFRSYM    DATA     BYTE      STPSTH
      000000FEH   SFRSYM    DATA     BYTE      STPSTL
      000000D0H.5 SFRSYM    DATA     BIT       F0
      000000ABH   SFRSYM    DATA     BYTE      WDFLG
      000000FBH   SFRSYM    DATA     BYTE      EPCON
      000000F7H   SFRSYM    DATA     BYTE      INDEX
      000000D0H   SFRSYM    DATA     BYTE      PSW
      000000AAH   SFRSYM    DATA     BYTE      WDCON
      000000A6H   SFRSYM    DATA     BYTE      SPDAT

      0100323AH   BLOCK     CODE     ---       LVL=0
      0100323AH   LINE      CODE     ---       #17
      0100323AH   LINE      CODE     ---       #18
      0100323AH   LINE      CODE     ---       #19
      01003240H   LINE      CODE     ---       #20
      01003244H   LINE      CODE     ---       #21
      ---         BLOCKEND  ---      ---       LVL=0

      01003014H   BLOCK     CODE     ---       LVL=0
      01003014H   LINE      CODE     ---       #24
      01003014H   LINE      CODE     ---       #25
      01003014H   LINE      CODE     ---       #26
      0100301AH   LINE      CODE     ---       #27
      0100301CH   LINE      CODE     ---       #28
      01003023H   LINE      CODE     ---       #29
      01003025H   LINE      CODE     ---       #30
      0100302CH   LINE      CODE     ---       #31
      0100302EH   LINE      CODE     ---       #32
LX51 LINKER/LOCATER V4.66.87.0                                                        03/10/2021  11:45:25  PAGE 53


      01003035H   LINE      CODE     ---       #33
      01003037H   LINE      CODE     ---       #34
      ---         BLOCKEND  ---      ---       LVL=0

      01003196H   BLOCK     CODE     ---       LVL=0
      01003196H   LINE      CODE     ---       #37
      01003196H   LINE      CODE     ---       #38
      01003196H   LINE      CODE     ---       #39
      0100319CH   LINE      CODE     ---       #40
      0100319EH   LINE      CODE     ---       #41
      010031A0H   LINE      CODE     ---       #42
      010031A7H   LINE      CODE     ---       #43
      010031A9H   LINE      CODE     ---       #44
      ---         BLOCKEND  ---      ---       LVL=0

      01002CE9H   BLOCK     CODE     ---       LVL=0
      01002CE9H   BLOCK     CODE     NEAR LAB  LVL=1
      02000131H   SYMBOL    XDATA    BYTE      ucErrTime
      ---         BLOCKEND  ---      ---       LVL=1
      01002CE9H   LINE      CODE     ---       #50
      01002CE9H   LINE      CODE     ---       #51
      01002CE9H   LINE      CODE     ---       #52
      01002CEEH   LINE      CODE     ---       #53
      01002CF3H   LINE      CODE     ---       #54
      01002CFCH   LINE      CODE     ---       #55
      01002D05H   LINE      CODE     ---       #56
      01002D08H   LINE      CODE     ---       #57
      01002D08H   LINE      CODE     ---       #58
      01002D0EH   LINE      CODE     ---       #59
      01002D14H   LINE      CODE     ---       #60
      01002D14H   LINE      CODE     ---       #61
      01002D17H   LINE      CODE     ---       #62
      01002D1AH   LINE      CODE     ---       #63
      01002D1AH   LINE      CODE     ---       #64
      01002D1AH   LINE      CODE     ---       #65
      01002D1CH   LINE      CODE     ---       #66
      01002D1EH   LINE      CODE     ---       #67
      ---         BLOCKEND  ---      ---       LVL=0

      0100313FH   BLOCK     CODE     ---       LVL=0
      0100313FH   LINE      CODE     ---       #70
      0100313FH   LINE      CODE     ---       #71
      0100313FH   LINE      CODE     ---       #72
      01003141H   LINE      CODE     ---       #73
      01003147H   LINE      CODE     ---       #74
      01003149H   LINE      CODE     ---       #75
      01003150H   LINE      CODE     ---       #76
      01003152H   LINE      CODE     ---       #77
      01003159H   LINE      CODE     ---       #78
      0100315BH   LINE      CODE     ---       #79
      ---         BLOCKEND  ---      ---       LVL=0

      0100315CH   BLOCK     CODE     ---       LVL=0
      0100315CH   LINE      CODE     ---       #82
      0100315CH   LINE      CODE     ---       #83
      0100315CH   LINE      CODE     ---       #84
      0100315EH   LINE      CODE     ---       #85
      01003164H   LINE      CODE     ---       #86
      01003166H   LINE      CODE     ---       #87
      0100316DH   LINE      CODE     ---       #88
      0100316FH   LINE      CODE     ---       #89
      01003176H   LINE      CODE     ---       #90
      01003178H   LINE      CODE     ---       #91
      ---         BLOCKEND  ---      ---       LVL=0

LX51 LINKER/LOCATER V4.66.87.0                                                        03/10/2021  11:45:25  PAGE 54


      01002A9EH   BLOCK     CODE     ---       LVL=0
      02000131H   SYMBOL    XDATA    BYTE      txd
      01002AA3H   BLOCK     CODE     NEAR LAB  LVL=1
      02000132H   SYMBOL    XDATA    BYTE      t
      ---         BLOCKEND  ---      ---       LVL=1
      01002A9EH   LINE      CODE     ---       #97
      01002AA3H   LINE      CODE     ---       #98
      01002AA3H   LINE      CODE     ---       #99
      01002AA3H   LINE      CODE     ---       #100
      01002AA9H   LINE      CODE     ---       #101
      01002AABH   LINE      CODE     ---       #102
      01002AB0H   LINE      CODE     ---       #103
      01002AB0H   LINE      CODE     ---       #104
      01002ABFH   LINE      CODE     ---       #105
      01002AC3H   LINE      CODE     ---       #107
      01002AC5H   LINE      CODE     ---       #108
      01002ACCH   LINE      CODE     ---       #109
      01002AD3H   LINE      CODE     ---       #110
      01002AD5H   LINE      CODE     ---       #111
      01002ADCH   LINE      CODE     ---       #112
      01002ADEH   LINE      CODE     ---       #113
      01002AE5H   LINE      CODE     ---       #114
      01002AF1H   LINE      CODE     ---       #115
      ---         BLOCKEND  ---      ---       LVL=0

      01002B46H   BLOCK     CODE     ---       LVL=0
      02000101H   SYMBOL    XDATA    BYTE      ack
      01002B4BH   BLOCK     CODE     NEAR LAB  LVL=1
      02000102H   SYMBOL    XDATA    BYTE      i
      02000103H   SYMBOL    XDATA    BYTE      receive
      ---         BLOCKEND  ---      ---       LVL=1
      01002B46H   LINE      CODE     ---       #118
      01002B4BH   LINE      CODE     ---       #119
      01002B4BH   LINE      CODE     ---       #120
      01002B50H   LINE      CODE     ---       #121
      01002B55H   LINE      CODE     ---       #122
      01002B5AH   LINE      CODE     ---       #123
      01002B5AH   LINE      CODE     ---       #124
      01002B5CH   LINE      CODE     ---       #125
      01002B63H   LINE      CODE     ---       #126
      01002B65H   LINE      CODE     ---       #127
      01002B6CH   LINE      CODE     ---       #128
      01002B72H   LINE      CODE     ---       #129
      01002B79H   LINE      CODE     ---       #130
      01002B85H   LINE      CODE     ---       #131
      01002B8BH   LINE      CODE     ---       #132
      01002B90H   LINE      CODE     ---       #134
      01002B93H   LINE      CODE     ---       #135
      01002B98H   LINE      CODE     ---       #136
      ---         BLOCKEND  ---      ---       LVL=0

      ---         MODULE    ---      ---       OLED
      01003AA4H   PUBLIC    CONST    ---       CH
      010034B4H   PUBLIC    CONST    ---       F8X16
      0100328CH   PUBLIC    CONST    ---       F6x8
      02000101H   PUBLIC    XDATA    BYTE      ?_OLED_Temp_Humi_Display?BYTE
      01001ED2H   PUBLIC    CODE     ---       _OLED_Temp_Humi_Display
      0100230CH   PUBLIC    CODE     ---       _OLED_ShowCN
      0200010BH   PUBLIC    XDATA    BYTE      ?_OLED_Show_Float_Number?BYTE
      01000BF9H   PUBLIC    CODE     ---       _OLED_Show_Float_Number
      02000119H   PUBLIC    XDATA    BYTE      ?_OLED_ShowNum?BYTE
      01000E40H   PUBLIC    CODE     ---       _OLED_ShowNum
      01003180H   PUBLIC    CODE     ---       _OLED_Pow
      0200010BH   PUBLIC    XDATA    BYTE      ?_OLED_ShowStr?BYTE
      010026E1H   PUBLIC    CODE     ---       _OLED_ShowStr
LX51 LINKER/LOCATER V4.66.87.0                                                        03/10/2021  11:45:25  PAGE 55


      02000129H   PUBLIC    XDATA    BYTE      ?_OLED_ShowChar?BYTE
      01001DFCH   PUBLIC    CODE     ---       _OLED_ShowChar
      01002DBFH   PUBLIC    CODE     ---       _OLED_SetPos
      01000036H   PUBLIC    CODE     ---       OLED_Clear
      01002B99H   PUBLIC    CODE     ---       _OLED_Fill
      010024C1H   PUBLIC    CODE     ---       OLED_Init
      01002D2EH   PUBLIC    CODE     ---       _Write_IIC_Data
      0100308DH   PUBLIC    CODE     ---       _Write_IIC_Command
      00000080H   SFRSYM    DATA     BYTE      P0
      00000090H   SFRSYM    DATA     BYTE      P1
      000000A0H   SFRSYM    DATA     BYTE      P2
      000000B0H   SFRSYM    DATA     BYTE      P3
      000000D0H.6 SFRSYM    DATA     BIT       AC
      000000A5H   SFRSYM    DATA     BYTE      SPCON
      000000A8H.7 SFRSYM    DATA     BIT       EA
      000000C8H.0 SFRSYM    DATA     BIT       T2P0
      000000C8H.1 SFRSYM    DATA     BIT       T2P1
      000000C8H.4 SFRSYM    DATA     BIT       T2R0
      000000DAH   SFRSYM    DATA     BYTE      PWMEN
      00000086H   SFRSYM    DATA     BYTE      PWCON
      000000C8H.5 SFRSYM    DATA     BIT       T2R1
      000000A7H   SFRSYM    DATA     BYTE      SPSTA
      00000083H   SFRSYM    DATA     BYTE      DP0H
      000000A8H   SFRSYM    DATA     BYTE      IE
      00000085H   SFRSYM    DATA     BYTE      DP1H
      00000082H   SFRSYM    DATA     BYTE      DP0L
      000000CBH   SFRSYM    DATA     BYTE      T2CH
      000000B3H   SFRSYM    DATA     BYTE      I2CADM
      00000084H   SFRSYM    DATA     BYTE      DP1L
      000000C8H.3 SFRSYM    DATA     BIT       T2IE
      000000CAH   SFRSYM    DATA     BYTE      T2CL
      000000B2H   SFRSYM    DATA     BYTE      I2CADR
      000000B8H   SFRSYM    DATA     BYTE      IP
      000000B7H   SFRSYM    DATA     BYTE      I2CFLG
      000000B5H   SFRSYM    DATA     BYTE      I2CDAT
      000000D0H.7 SFRSYM    DATA     BIT       CY
      000000BBH   SFRSYM    DATA     BYTE      ADCFGH
      000000DCH   SFRSYM    DATA     BYTE      PWMCMAX
      000000B1H   SFRSYM    DATA     BYTE      I2CCON
      000000D1H   SFRSYM    DATA     BYTE      PWMDIVH
      000000BAH   SFRSYM    DATA     BYTE      ADCFGL
      00000081H   SFRSYM    DATA     BYTE      SP
      000000F9H   SFRSYM    DATA     BYTE      EPIE
      000000D0H.2 SFRSYM    DATA     BIT       OV
      000000FAH   SFRSYM    DATA     BYTE      EPIF
      000000DFH   SFRSYM    DATA     BYTE      PWMDIVL
      000000B6H   SFRSYM    DATA     BYTE      I2CSTA
      000000E8H   SFRSYM    DATA     BYTE      EXIE
      000000D3H   SFRSYM    DATA     BYTE      PWMDUTH
      0000008FH   SFRSYM    DATA     BYTE      IT0CON
      00000080H.0 SFRSYM    DATA     BIT       P00
      000000D2H   SFRSYM    DATA     BYTE      PWMDUTL
      0000008EH   SFRSYM    DATA     BYTE      IT1CON
      00000090H.0 SFRSYM    DATA     BIT       P10
      00000080H.1 SFRSYM    DATA     BIT       P01
      0000009DH   SFRSYM    DATA     BYTE      S1RELH
      00000087H   SFRSYM    DATA     BYTE      PCON
      000000A0H.0 SFRSYM    DATA     BIT       P20
      00000090H.1 SFRSYM    DATA     BIT       P11
      00000080H.2 SFRSYM    DATA     BIT       P02
      000000E8H.0 SFRSYM    DATA     BIT       INT2EN
      000000A4H   SFRSYM    DATA     BYTE      S2RELH
      000000B0H.0 SFRSYM    DATA     BIT       P30
      00000090H.2 SFRSYM    DATA     BIT       P12
      00000080H.3 SFRSYM    DATA     BIT       P03
LX51 LINKER/LOCATER V4.66.87.0                                                        03/10/2021  11:45:25  PAGE 56


      000000E8H.1 SFRSYM    DATA     BIT       INT3EN
      00000090H.3 SFRSYM    DATA     BIT       P13
      00000080H.4 SFRSYM    DATA     BIT       P04
      000000E8H.2 SFRSYM    DATA     BIT       INT4EN
      00000090H.4 SFRSYM    DATA     BIT       P14
      00000080H.5 SFRSYM    DATA     BIT       P05
      000000E8H.3 SFRSYM    DATA     BIT       INT5EN
      0000009CH   SFRSYM    DATA     BYTE      S1RELL
      00000089H   SFRSYM    DATA     BYTE      TMOD
      00000088H   SFRSYM    DATA     BYTE      TCON
      00000090H.5 SFRSYM    DATA     BIT       P15
      00000080H.6 SFRSYM    DATA     BIT       P06
      000000E8H.4 SFRSYM    DATA     BIT       INT6EN
      000000A3H   SFRSYM    DATA     BYTE      S2RELL
      00000090H.6 SFRSYM    DATA     BIT       P16
      00000080H.7 SFRSYM    DATA     BIT       P07
      000000E8H.5 SFRSYM    DATA     BIT       INT7EN
      000000C8H.2 SFRSYM    DATA     BIT       UCKS
      000000F8H   SFRSYM    DATA     BYTE      EXIP
      00000090H.7 SFRSYM    DATA     BIT       P17
      000000E8H.6 SFRSYM    DATA     BIT       INT8EN
      000000E8H.7 SFRSYM    DATA     BIT       INT9EN
      00000088H.1 SFRSYM    DATA     BIT       IE0
      00000088H.3 SFRSYM    DATA     BIT       IE1
      000000F0H   SFRSYM    DATA     BYTE      B
      000000E7H   SFRSYM    DATA     BYTE      MDUDAT
      000000DEH   SFRSYM    DATA     BYTE      PWMCFG
      000000D4H   SFRSYM    DATA     BYTE      PWMAIF
      000000E0H   SFRSYM    DATA     BYTE      ACC
      000000D5H   SFRSYM    DATA     BYTE      PWMBIF
      000000A8H.4 SFRSYM    DATA     BIT       ES0
      000000EFH   SFRSYM    DATA     BYTE      LVDCON
      000000E6H   SFRSYM    DATA     BYTE      MDUCON
      000000D6H   SFRSYM    DATA     BYTE      PWMCIF
      000000A8H.1 SFRSYM    DATA     BIT       ET0
      000000A8H.6 SFRSYM    DATA     BIT       ES1
      000000D7H   SFRSYM    DATA     BYTE      PWMDIF
      000000A8H.3 SFRSYM    DATA     BIT       ET1
      00000088H.5 SFRSYM    DATA     BIT       TF0
      000000FDH   SFRSYM    DATA     BYTE      IDLSTH
      000000A8H.5 SFRSYM    DATA     BIT       ET2
      00000088H.7 SFRSYM    DATA     BIT       TF1
      000000C8H.7 SFRSYM    DATA     BIT       TF2
      0000008CH   SFRSYM    DATA     BYTE      TH0
      000000A8H.0 SFRSYM    DATA     BIT       EX0
      00000088H.0 SFRSYM    DATA     BIT       IT0
      0000008DH   SFRSYM    DATA     BYTE      TH1
      000000A8H.2 SFRSYM    DATA     BIT       EX1
      00000088H.2 SFRSYM    DATA     BIT       IT1
      000000FCH   SFRSYM    DATA     BYTE      IDLSTL
      000000CDH   SFRSYM    DATA     BYTE      TH2
      000000D0H.0 SFRSYM    DATA     BIT       P
      0000008AH   SFRSYM    DATA     BYTE      TL0
      0000008BH   SFRSYM    DATA     BYTE      TL1
      000000CCH   SFRSYM    DATA     BYTE      TL2
      000000B8H.4 SFRSYM    DATA     BIT       PS0
      000000B8H.1 SFRSYM    DATA     BIT       PT0
      000000B8H.6 SFRSYM    DATA     BIT       PS1
      000000B4H   SFRSYM    DATA     BYTE      I2CCR
      000000B8H.3 SFRSYM    DATA     BIT       PT1
      000000D0H.3 SFRSYM    DATA     BIT       RS0
      000000BDH   SFRSYM    DATA     BYTE      ADCDH
      000000B8H.5 SFRSYM    DATA     BIT       PT2
      00000088H.4 SFRSYM    DATA     BIT       TR0
      000000D0H.4 SFRSYM    DATA     BIT       RS1
LX51 LINKER/LOCATER V4.66.87.0                                                        03/10/2021  11:45:25  PAGE 57


      000000DDH   SFRSYM    DATA     BYTE      PWMCON
      00000088H.6 SFRSYM    DATA     BIT       TR1
      000000ADH   SFRSYM    DATA     BYTE      WDVTHH
      000000C8H.6 SFRSYM    DATA     BIT       TR2
      000000B8H.0 SFRSYM    DATA     BIT       PX0
      000000B8H.2 SFRSYM    DATA     BIT       PX1
      000000BCH   SFRSYM    DATA     BYTE      ADCDL
      000000ACH   SFRSYM    DATA     BYTE      WDVTHL
      000000DBH   SFRSYM    DATA     BYTE      PWMUPD
      0000009BH   SFRSYM    DATA     BYTE      S1BUF
      000000A2H   SFRSYM    DATA     BYTE      S2BUF
      0000009AH   SFRSYM    DATA     BYTE      S1CON
      000000B9H   SFRSYM    DATA     BYTE      ADCON
      000000A1H   SFRSYM    DATA     BYTE      S2CON
      000000D0H.1 SFRSYM    DATA     BIT       DPS
      000000C9H   SFRSYM    DATA     BYTE      T2MOD
      000000C8H   SFRSYM    DATA     BYTE      T2CON
      000000FFH   SFRSYM    DATA     BYTE      STPSTH
      000000FEH   SFRSYM    DATA     BYTE      STPSTL
      000000D0H.5 SFRSYM    DATA     BIT       F0
      000000ABH   SFRSYM    DATA     BYTE      WDFLG
      000000FBH   SFRSYM    DATA     BYTE      EPCON
      000000F7H   SFRSYM    DATA     BYTE      INDEX
      000000D0H   SFRSYM    DATA     BYTE      PSW
      000000AAH   SFRSYM    DATA     BYTE      WDCON
      000000A6H   SFRSYM    DATA     BYTE      SPDAT

      0100308DH   BLOCK     CODE     ---       LVL=0
      02000130H   SYMBOL    XDATA    BYTE      Command
      0100308DH   LINE      CODE     ---       #112
      01003092H   LINE      CODE     ---       #113
      01003092H   LINE      CODE     ---       #114
      01003095H   LINE      CODE     ---       #115
      0100309AH   LINE      CODE     ---       #116
      0100309DH   LINE      CODE     ---       #117
      010030A2H   LINE      CODE     ---       #118
      010030A5H   LINE      CODE     ---       #119
      010030ADH   LINE      CODE     ---       #120
      010030B0H   LINE      CODE     ---       #121
      ---         BLOCKEND  ---      ---       LVL=0

      01002D1FH   BLOCK     CODE     VOID      LVL=0
      ---         BLOCKEND  ---      ---       LVL=0

      01002D2EH   BLOCK     CODE     ---       LVL=0
      0200012FH   SYMBOL    XDATA    BYTE      WriteData
      01002D2EH   LINE      CODE     ---       #124
      01002D33H   LINE      CODE     ---       #125
      01002D33H   LINE      CODE     ---       #126
      01002D36H   LINE      CODE     ---       #127
      01002D3BH   LINE      CODE     ---       #128
      01002D3EH   LINE      CODE     ---       #129
      01002D43H   LINE      CODE     ---       #130
      01002D46H   LINE      CODE     ---       #131
      01002D4EH   LINE      CODE     ---       #132
      01002D51H   LINE      CODE     ---       #133
      ---         BLOCKEND  ---      ---       LVL=0

      010024C1H   BLOCK     CODE     ---       LVL=0
      010024C1H   LINE      CODE     ---       #137
      010024C1H   LINE      CODE     ---       #138
      010024C1H   LINE      CODE     ---       #139
      010024C6H   LINE      CODE     ---       #140
      010024CBH   LINE      CODE     ---       #141
      010024D0H   LINE      CODE     ---       #142
LX51 LINKER/LOCATER V4.66.87.0                                                        03/10/2021  11:45:25  PAGE 58


      010024D5H   LINE      CODE     ---       #143
      010024DAH   LINE      CODE     ---       #144
      010024DFH   LINE      CODE     ---       #145
      010024E4H   LINE      CODE     ---       #146
      010024E9H   LINE      CODE     ---       #147
      010024EEH   LINE      CODE     ---       #148
      010024F3H   LINE      CODE     ---       #149
      010024F8H   LINE      CODE     ---       #150
      010024FDH   LINE      CODE     ---       #151
      01002502H   LINE      CODE     ---       #152
      01002507H   LINE      CODE     ---       #153
      0100250CH   LINE      CODE     ---       #154
      01002511H   LINE      CODE     ---       #155
      01002516H   LINE      CODE     ---       #156
      0100251BH   LINE      CODE     ---       #157
      01002520H   LINE      CODE     ---       #158
      01002525H   LINE      CODE     ---       #159
      0100252AH   LINE      CODE     ---       #160
      0100252FH   LINE      CODE     ---       #161
      01002534H   LINE      CODE     ---       #162
      01002539H   LINE      CODE     ---       #163
      0100253EH   LINE      CODE     ---       #164
      01002543H   LINE      CODE     ---       #165
      01002548H   LINE      CODE     ---       #166
      ---         BLOCKEND  ---      ---       LVL=0

      01002B99H   BLOCK     CODE     ---       LVL=0
      020000F5H   SYMBOL    XDATA    BYTE      fill_Data
      01002B9EH   BLOCK     CODE     NEAR LAB  LVL=1
      020000F6H   SYMBOL    XDATA    BYTE      x
      020000F7H   SYMBOL    XDATA    BYTE      y
      020000F8H   SYMBOL    XDATA    WORD      i
      ---         BLOCKEND  ---      ---       LVL=1
      01002B99H   LINE      CODE     ---       #175
      01002B9EH   LINE      CODE     ---       #176
      01002B9EH   LINE      CODE     ---       #178
      01002BA5H   LINE      CODE     ---       #179
      01002BB3H   LINE      CODE     ---       #180
      01002BB3H   LINE      CODE     ---       #181
      01002BBAH   LINE      CODE     ---       #182
      01002BBFH   LINE      CODE     ---       #183
      01002BC4H   LINE      CODE     ---       #184
      01002BC9H   LINE      CODE     ---       #185
      01002BC9H   LINE      CODE     ---       #186
      01002BD1H   LINE      CODE     ---       #187
      01002BDDH   LINE      CODE     ---       #188
      01002BE5H   LINE      CODE     ---       #189
      ---         BLOCKEND  ---      ---       LVL=0

      01000036H   BLOCK     CODE     ---       LVL=0
      01000036H   LINE      CODE     ---       #196
      01000036H   LINE      CODE     ---       #197
      01000036H   LINE      CODE     ---       #198
      ---         BLOCKEND  ---      ---       LVL=0

      01002DB7H   BLOCK     CODE     VOID      LVL=0
      ---         BLOCKEND  ---      ---       LVL=0

      01002DBFH   BLOCK     CODE     ---       LVL=0
      0200012FH   SYMBOL    XDATA    BYTE      x
      00000005H   SYMBOL    DATA     BYTE      y
      01002DBFH   LINE      CODE     ---       #233
      01002DC4H   LINE      CODE     ---       #234
      01002DC4H   LINE      CODE     ---       #235
      01002DCBH   LINE      CODE     ---       #236
LX51 LINKER/LOCATER V4.66.87.0                                                        03/10/2021  11:45:25  PAGE 59


      01002DDAH   LINE      CODE     ---       #237
      ---         BLOCKEND  ---      ---       LVL=0

      01001DE2H   BLOCK     CODE     VOID      LVL=0
      ---         BLOCKEND  ---      ---       LVL=0

      01001DFCH   BLOCK     CODE     ---       LVL=0
      02000129H   SYMBOL    XDATA    BYTE      x
      0200012AH   SYMBOL    XDATA    BYTE      y
      00000003H   SYMBOL    DATA     BYTE      ch
      0200012CH   SYMBOL    XDATA    BYTE      TextSize
      0200012DH   SYMBOL    XDATA    BYTE      c
      0200012EH   SYMBOL    XDATA    BYTE      i
      01001E07H   BLOCK     CODE     NEAR LAB  LVL=1
      0200012DH   SYMBOL    XDATA    BYTE      c
      0200012EH   SYMBOL    XDATA    BYTE      i
      ---         BLOCKEND  ---      ---       LVL=1
      01001DFCH   LINE      CODE     ---       #247
      01001E07H   LINE      CODE     ---       #248
      01001E07H   LINE      CODE     ---       #249
      01001E0EH   LINE      CODE     ---       #250
      01001E15H   LINE      CODE     ---       #251
      01001E1BH   LINE      CODE     ---       #252
      01001E25H   LINE      CODE     ---       #253
      01001E2DH   LINE      CODE     ---       #254
      01001E2DH   LINE      CODE     ---       #255
      01001E30H   LINE      CODE     ---       #256
      01001E3FH   LINE      CODE     ---       #257
      01001E64H   LINE      CODE     ---       #258
      01001E70H   LINE      CODE     ---       #259
      01001E7FH   LINE      CODE     ---       #260
      01001EA4H   LINE      CODE     ---       #261
      01001EA4H   LINE      CODE     ---       #263
      01001EA4H   LINE      CODE     ---       #264
      01001EA7H   LINE      CODE     ---       #265
      01001EB6H   LINE      CODE     ---       #266
      01001ED1H   LINE      CODE     ---       #267
      01001ED1H   LINE      CODE     ---       #268
      ---         BLOCKEND  ---      ---       LVL=0

      010026E1H   BLOCK     CODE     ---       LVL=0
      0200010BH   SYMBOL    XDATA    BYTE      x
      0200010CH   SYMBOL    XDATA    BYTE      y
      0200010DH   SYMBOL    XDATA    ---       ch
      02000110H   SYMBOL    XDATA    BYTE      TextSize
      010026F2H   BLOCK     CODE     NEAR LAB  LVL=1
      02000111H   SYMBOL    XDATA    BYTE      c
      02000112H   SYMBOL    XDATA    BYTE      i
      02000113H   SYMBOL    XDATA    BYTE      j
      ---         BLOCKEND  ---      ---       LVL=1
      010026E1H   LINE      CODE     ---       #278
      010026F2H   LINE      CODE     ---       #279
      010026F2H   LINE      CODE     ---       #280
      010026FBH   LINE      CODE     ---       #281
      01002715H   LINE      CODE     ---       #282
      01002715H   LINE      CODE     ---       #283
      01002728H   LINE      CODE     ---       #284
      0100272FH   LINE      CODE     ---       #285
      0100272FH   LINE      CODE     ---       #286
      01002736H   LINE      CODE     ---       #287
      0100273CH   LINE      CODE     ---       #288
      0100273CH   LINE      CODE     ---       #289
      0100273EH   LINE      CODE     ---       #290
      01002743H   LINE      CODE     ---       #291
      01002743H   LINE      CODE     ---       #292
LX51 LINKER/LOCATER V4.66.87.0                                                        03/10/2021  11:45:25  PAGE 60


      01002743H   LINE      CODE     ---       #293
      01002745H   LINE      CODE     ---       #295
      01002745H   LINE      CODE     ---       #296
      0100274CH   LINE      CODE     ---       #297
      01002752H   LINE      CODE     ---       #298
      01002752H   LINE      CODE     ---       #299
      01002754H   LINE      CODE     ---       #300
      01002759H   LINE      CODE     ---       #301
      01002759H   LINE      CODE     ---       #302
      0100275FH   LINE      CODE     ---       #303
      0100275FH   LINE      CODE     ---       #304
      01002761H   LINE      CODE     ---       #305
      ---         BLOCKEND  ---      ---       LVL=0

      01003179H   BLOCK     CODE     VOID      LVL=0
      ---         BLOCKEND  ---      ---       LVL=0

      01003180H   BLOCK     CODE     ---       LVL=0
      00000007H   SYMBOL    DATA     BYTE      m
      00000005H   SYMBOL    DATA     BYTE      n
      00000006H   SYMBOL    DATA     BYTE      result
      01003180H   BLOCK     CODE     NEAR LAB  LVL=1
      00000006H   SYMBOL    DATA     BYTE      result
      ---         BLOCKEND  ---      ---       LVL=1
      01003180H   LINE      CODE     ---       #313
      01003180H   LINE      CODE     ---       #314
      01003180H   LINE      CODE     ---       #315
      01003182H   LINE      CODE     ---       #316
      0100318FH   LINE      CODE     ---       #317
      01003195H   LINE      CODE     ---       #318
      ---         BLOCKEND  ---      ---       LVL=0

      01000E35H   BLOCK     CODE     VOID      LVL=0
      ---         BLOCKEND  ---      ---       LVL=0

      01000E40H   BLOCK     CODE     ---       LVL=0
      02000119H   SYMBOL    XDATA    BYTE      x
      0200011AH   SYMBOL    XDATA    BYTE      y
      0200011BH   SYMBOL    XDATA    DWORD     num
      0200011FH   SYMBOL    XDATA    BYTE      len
      02000120H   SYMBOL    XDATA    BYTE      TextSize
      02000121H   SYMBOL    XDATA    WORD      i
      02000123H   SYMBOL    XDATA    WORD      t
      02000125H   SYMBOL    XDATA    WORD      temp
      02000127H   SYMBOL    XDATA    WORD      enshow
      01000E48H   BLOCK     CODE     NEAR LAB  LVL=1
      02000121H   SYMBOL    XDATA    WORD      i
      02000123H   SYMBOL    XDATA    WORD      t
      02000125H   SYMBOL    XDATA    WORD      temp
      02000127H   SYMBOL    XDATA    WORD      enshow
      ---         BLOCKEND  ---      ---       LVL=1
      01000E40H   LINE      CODE     ---       #326
      01000E48H   LINE      CODE     ---       #327
      01000E48H   LINE      CODE     ---       #329
      01000E4FH   LINE      CODE     ---       #330
      01000E56H   LINE      CODE     ---       #331
      01000E5FH   LINE      CODE     ---       #333
      01000E68H   LINE      CODE     ---       #334
      01000E84H   LINE      CODE     ---       #335
      01000E84H   LINE      CODE     ---       #336
      01000E9BH   LINE      CODE     ---       #337
      01000EB0H   LINE      CODE     ---       #338
      01000ECFH   LINE      CODE     ---       #339
      01000ECFH   LINE      CODE     ---       #340
      01000EFEH   LINE      CODE     ---       #341
LX51 LINKER/LOCATER V4.66.87.0                                                        03/10/2021  11:45:25  PAGE 61


      01000F1FH   LINE      CODE     ---       #342
      01000F1FH   LINE      CODE     ---       #343
      01000F27H   LINE      CODE     ---       #344
      01000F27H   LINE      CODE     ---       #345
      01000F48H   LINE      CODE     ---       #346
      01000F4AH   LINE      CODE     ---       #347
      01000F52H   LINE      CODE     ---       #348
      01000F52H   LINE      CODE     ---       #349
      01000F80H   LINE      CODE     ---       #350
      01000F91H   LINE      CODE     ---       #351
      01000F91H   LINE      CODE     ---       #353
      01000F91H   LINE      CODE     ---       #354
      01000FB0H   LINE      CODE     ---       #355
      01000FB0H   LINE      CODE     ---       #356
      01000FDFH   LINE      CODE     ---       #357
      01001000H   LINE      CODE     ---       #358
      01001000H   LINE      CODE     ---       #359
      01001008H   LINE      CODE     ---       #360
      01001008H   LINE      CODE     ---       #361
      01001026H   LINE      CODE     ---       #362
      01001028H   LINE      CODE     ---       #363
      01001030H   LINE      CODE     ---       #364
      01001030H   LINE      CODE     ---       #365
      0100105BH   LINE      CODE     ---       #366
      0100106CH   LINE      CODE     ---       #367
      0100106CH   LINE      CODE     ---       #368
      ---         BLOCKEND  ---      ---       LVL=0

      01000BF9H   BLOCK     CODE     ---       LVL=0
      0200010BH   SYMBOL    XDATA    BYTE      x
      0200010CH   SYMBOL    XDATA    BYTE      y
      0200010DH   SYMBOL    XDATA    FLOAT     num
      02000111H   SYMBOL    XDATA    BYTE      TextSize
      01000C01H   BLOCK     CODE     NEAR LAB  LVL=1
      02000112H   SYMBOL    XDATA    BYTE      zheng_len
      02000113H   SYMBOL    XDATA    BYTE      xiao_len
      02000114H   SYMBOL    XDATA    BYTE      polarity_flag
      02000115H   SYMBOL    XDATA    INT       zheng
      02000117H   SYMBOL    XDATA    INT       xiao
      ---         BLOCKEND  ---      ---       LVL=1
      01000BF9H   LINE      CODE     ---       #370
      01000C01H   LINE      CODE     ---       #371
      01000C01H   LINE      CODE     ---       #372
      01000C08H   LINE      CODE     ---       #373
      01000C12H   LINE      CODE     ---       #374
      01000C2BH   LINE      CODE     ---       #375
      01000C33H   LINE      CODE     ---       #377
      01000C33H   LINE      CODE     ---       #378
      01000C38H   LINE      CODE     ---       #379
      01000C4FH   LINE      CODE     ---       #380
      01000C4FH   LINE      CODE     ---       #381
      01000C68H   LINE      CODE     ---       #382
      01000C9AH   LINE      CODE     ---       #383
      01000CA5H   LINE      CODE     ---       #384
      01000CA5H   LINE      CODE     ---       #385
      01000CABH   LINE      CODE     ---       #386
      01000CBAH   LINE      CODE     ---       #387
      01000CBCH   LINE      CODE     ---       #388
      01000CC2H   LINE      CODE     ---       #389
      01000CDBH   LINE      CODE     ---       #390
      01000CE1H   LINE      CODE     ---       #391
      01000CE1H   LINE      CODE     ---       #392
      01000CEDH   LINE      CODE     ---       #393
      01000CEDH   LINE      CODE     ---       #394
      01000D0BH   LINE      CODE     ---       #395
LX51 LINKER/LOCATER V4.66.87.0                                                        03/10/2021  11:45:25  PAGE 62


      01000D15H   LINE      CODE     ---       #396
      01000D1DH   LINE      CODE     ---       #397
      01000D20H   LINE      CODE     ---       #399
      01000D20H   LINE      CODE     ---       #400
      01000D43H   LINE      CODE     ---       #401
      01000D4DH   LINE      CODE     ---       #402
      01000D55H   LINE      CODE     ---       #403
      01000D55H   LINE      CODE     ---       #404
      01000D58H   LINE      CODE     ---       #406
      01000D58H   LINE      CODE     ---       #407
      01000D6DH   LINE      CODE     ---       #408
      01000D79H   LINE      CODE     ---       #409
      01000D79H   LINE      CODE     ---       #410
      01000DA8H   LINE      CODE     ---       #411
      01000DAEH   LINE      CODE     ---       #412
      01000DB7H   LINE      CODE     ---       #413
      01000DB9H   LINE      CODE     ---       #415
      01000DB9H   LINE      CODE     ---       #416
      01000DEDH   LINE      CODE     ---       #417
      01000DF3H   LINE      CODE     ---       #418
      01000E34H   LINE      CODE     ---       #419
      01000E34H   LINE      CODE     ---       #420
      01000E34H   LINE      CODE     ---       #421
      ---         BLOCKEND  ---      ---       LVL=0

      0100230CH   BLOCK     CODE     ---       LVL=0
      0200010BH   SYMBOL    XDATA    BYTE      x
      0200010CH   SYMBOL    XDATA    BYTE      y
      0200010DH   SYMBOL    XDATA    BYTE      N
      01002319H   BLOCK     CODE     NEAR LAB  LVL=1
      0200010EH   SYMBOL    XDATA    BYTE      i
      0200010FH   SYMBOL    XDATA    WORD      adder
      ---         BLOCKEND  ---      ---       LVL=1
      0100230CH   LINE      CODE     ---       #428
      01002319H   LINE      CODE     ---       #429
      01002319H   LINE      CODE     ---       #431
      01002320H   LINE      CODE     ---       #432
      01002323H   LINE      CODE     ---       #433
      01002332H   LINE      CODE     ---       #434
      01002332H   LINE      CODE     ---       #435
      01002345H   LINE      CODE     ---       #436
      01002353H   LINE      CODE     ---       #437
      0100235BH   LINE      CODE     ---       #438
      01002367H   LINE      CODE     ---       #439
      01002376H   LINE      CODE     ---       #440
      01002376H   LINE      CODE     ---       #441
      01002389H   LINE      CODE     ---       #442
      01002397H   LINE      CODE     ---       #443
      0100239FH   LINE      CODE     ---       #444
      ---         BLOCKEND  ---      ---       LVL=0
      00000005H   SYMBOL    DATA     BYTE      y0

      01001ED2H   BLOCK     CODE     ---       LVL=0
      02000101H   SYMBOL    XDATA    FLOAT     temp
      02000105H   SYMBOL    XDATA    FLOAT     Humi
      01001ED8H   BLOCK     CODE     NEAR LAB  LVL=1
      02000109H   SYMBOL    XDATA    INT       i
      ---         BLOCKEND  ---      ---       LVL=1
      01001ED2H   LINE      CODE     ---       #480
      01001ED8H   LINE      CODE     ---       #481
      01001ED8H   LINE      CODE     ---       #482
      01001EDFH   LINE      CODE     ---       #484
      01001EF7H   LINE      CODE     ---       #485
      01001EF7H   LINE      CODE     ---       #486
      01001F04H   LINE      CODE     ---       #487
LX51 LINKER/LOCATER V4.66.87.0                                                        03/10/2021  11:45:25  PAGE 63


      01001F14H   LINE      CODE     ---       #488
      01001F1DH   LINE      CODE     ---       #489
      01001F26H   LINE      CODE     ---       #490
      01001F35H   LINE      CODE     ---       #491
      01001F56H   LINE      CODE     ---       #492
      01001F69H   LINE      CODE     ---       #494
      01001F72H   LINE      CODE     ---       #495
      01001F7BH   LINE      CODE     ---       #496
      01001F8AH   LINE      CODE     ---       #497
      01001FABH   LINE      CODE     ---       #498
      ---         BLOCKEND  ---      ---       LVL=0

      ---         MODULE    ---      ---       BEEP
      010030D7H   PUBLIC    CODE     ---       Beep_Init
      00000080H   SFRSYM    DATA     BYTE      P0
      00000090H   SFRSYM    DATA     BYTE      P1
      000000A0H   SFRSYM    DATA     BYTE      P2
      000000B0H   SFRSYM    DATA     BYTE      P3
      000000D0H.6 SFRSYM    DATA     BIT       AC
      000000A5H   SFRSYM    DATA     BYTE      SPCON
      000000A8H.7 SFRSYM    DATA     BIT       EA
      000000C8H.0 SFRSYM    DATA     BIT       T2P0
      000000C8H.1 SFRSYM    DATA     BIT       T2P1
      000000C8H.4 SFRSYM    DATA     BIT       T2R0
      000000DAH   SFRSYM    DATA     BYTE      PWMEN
      00000086H   SFRSYM    DATA     BYTE      PWCON
      000000C8H.5 SFRSYM    DATA     BIT       T2R1
      000000A7H   SFRSYM    DATA     BYTE      SPSTA
      00000083H   SFRSYM    DATA     BYTE      DP0H
      000000A8H   SFRSYM    DATA     BYTE      IE
      00000085H   SFRSYM    DATA     BYTE      DP1H
      00000082H   SFRSYM    DATA     BYTE      DP0L
      000000CBH   SFRSYM    DATA     BYTE      T2CH
      000000B3H   SFRSYM    DATA     BYTE      I2CADM
      00000084H   SFRSYM    DATA     BYTE      DP1L
      000000C8H.3 SFRSYM    DATA     BIT       T2IE
      000000CAH   SFRSYM    DATA     BYTE      T2CL
      000000B2H   SFRSYM    DATA     BYTE      I2CADR
      000000B8H   SFRSYM    DATA     BYTE      IP
      000000B7H   SFRSYM    DATA     BYTE      I2CFLG
      000000B5H   SFRSYM    DATA     BYTE      I2CDAT
      000000D0H.7 SFRSYM    DATA     BIT       CY
      000000BBH   SFRSYM    DATA     BYTE      ADCFGH
      000000DCH   SFRSYM    DATA     BYTE      PWMCMAX
      000000B1H   SFRSYM    DATA     BYTE      I2CCON
      000000D1H   SFRSYM    DATA     BYTE      PWMDIVH
      000000BAH   SFRSYM    DATA     BYTE      ADCFGL
      00000081H   SFRSYM    DATA     BYTE      SP
      000000F9H   SFRSYM    DATA     BYTE      EPIE
      000000D0H.2 SFRSYM    DATA     BIT       OV
      000000FAH   SFRSYM    DATA     BYTE      EPIF
      000000DFH   SFRSYM    DATA     BYTE      PWMDIVL
      000000B6H   SFRSYM    DATA     BYTE      I2CSTA
      000000E8H   SFRSYM    DATA     BYTE      EXIE
      000000D3H   SFRSYM    DATA     BYTE      PWMDUTH
      0000008FH   SFRSYM    DATA     BYTE      IT0CON
      00000080H.0 SFRSYM    DATA     BIT       P00
      000000D2H   SFRSYM    DATA     BYTE      PWMDUTL
      0000008EH   SFRSYM    DATA     BYTE      IT1CON
      00000090H.0 SFRSYM    DATA     BIT       P10
      00000080H.1 SFRSYM    DATA     BIT       P01
      0000009DH   SFRSYM    DATA     BYTE      S1RELH
      00000087H   SFRSYM    DATA     BYTE      PCON
      000000A0H.0 SFRSYM    DATA     BIT       P20
      00000090H.1 SFRSYM    DATA     BIT       P11
LX51 LINKER/LOCATER V4.66.87.0                                                        03/10/2021  11:45:25  PAGE 64


      00000080H.2 SFRSYM    DATA     BIT       P02
      000000E8H.0 SFRSYM    DATA     BIT       INT2EN
      000000A4H   SFRSYM    DATA     BYTE      S2RELH
      000000B0H.0 SFRSYM    DATA     BIT       P30
      00000090H.2 SFRSYM    DATA     BIT       P12
      00000080H.3 SFRSYM    DATA     BIT       P03
      000000E8H.1 SFRSYM    DATA     BIT       INT3EN
      00000090H.3 SFRSYM    DATA     BIT       P13
      00000080H.4 SFRSYM    DATA     BIT       P04
      000000E8H.2 SFRSYM    DATA     BIT       INT4EN
      00000090H.4 SFRSYM    DATA     BIT       P14
      00000080H.5 SFRSYM    DATA     BIT       P05
      000000E8H.3 SFRSYM    DATA     BIT       INT5EN
      0000009CH   SFRSYM    DATA     BYTE      S1RELL
      00000089H   SFRSYM    DATA     BYTE      TMOD
      00000088H   SFRSYM    DATA     BYTE      TCON
      00000090H.5 SFRSYM    DATA     BIT       P15
      00000080H.6 SFRSYM    DATA     BIT       P06
      000000E8H.4 SFRSYM    DATA     BIT       INT6EN
      000000A3H   SFRSYM    DATA     BYTE      S2RELL
      00000090H.6 SFRSYM    DATA     BIT       P16
      00000080H.7 SFRSYM    DATA     BIT       P07
      000000E8H.5 SFRSYM    DATA     BIT       INT7EN
      000000C8H.2 SFRSYM    DATA     BIT       UCKS
      000000F8H   SFRSYM    DATA     BYTE      EXIP
      00000090H.7 SFRSYM    DATA     BIT       P17
      000000E8H.6 SFRSYM    DATA     BIT       INT8EN
      000000E8H.7 SFRSYM    DATA     BIT       INT9EN
      00000088H.1 SFRSYM    DATA     BIT       IE0
      00000088H.3 SFRSYM    DATA     BIT       IE1
      000000F0H   SFRSYM    DATA     BYTE      B
      000000E7H   SFRSYM    DATA     BYTE      MDUDAT
      000000DEH   SFRSYM    DATA     BYTE      PWMCFG
      000000D4H   SFRSYM    DATA     BYTE      PWMAIF
      000000E0H   SFRSYM    DATA     BYTE      ACC
      000000D5H   SFRSYM    DATA     BYTE      PWMBIF
      000000A8H.4 SFRSYM    DATA     BIT       ES0
      000000EFH   SFRSYM    DATA     BYTE      LVDCON
      000000E6H   SFRSYM    DATA     BYTE      MDUCON
      000000D6H   SFRSYM    DATA     BYTE      PWMCIF
      000000A8H.1 SFRSYM    DATA     BIT       ET0
      000000A8H.6 SFRSYM    DATA     BIT       ES1
      000000D7H   SFRSYM    DATA     BYTE      PWMDIF
      000000A8H.3 SFRSYM    DATA     BIT       ET1
      00000088H.5 SFRSYM    DATA     BIT       TF0
      000000FDH   SFRSYM    DATA     BYTE      IDLSTH
      000000A8H.5 SFRSYM    DATA     BIT       ET2
      00000088H.7 SFRSYM    DATA     BIT       TF1
      000000C8H.7 SFRSYM    DATA     BIT       TF2
      0000008CH   SFRSYM    DATA     BYTE      TH0
      000000A8H.0 SFRSYM    DATA     BIT       EX0
      00000088H.0 SFRSYM    DATA     BIT       IT0
      0000008DH   SFRSYM    DATA     BYTE      TH1
      000000A8H.2 SFRSYM    DATA     BIT       EX1
      00000088H.2 SFRSYM    DATA     BIT       IT1
      000000FCH   SFRSYM    DATA     BYTE      IDLSTL
      000000CDH   SFRSYM    DATA     BYTE      TH2
      000000D0H.0 SFRSYM    DATA     BIT       P
      0000008AH   SFRSYM    DATA     BYTE      TL0
      0000008BH   SFRSYM    DATA     BYTE      TL1
      000000CCH   SFRSYM    DATA     BYTE      TL2
      000000B8H.4 SFRSYM    DATA     BIT       PS0
      000000B8H.1 SFRSYM    DATA     BIT       PT0
      000000B8H.6 SFRSYM    DATA     BIT       PS1
      000000B4H   SFRSYM    DATA     BYTE      I2CCR
LX51 LINKER/LOCATER V4.66.87.0                                                        03/10/2021  11:45:25  PAGE 65


      000000B8H.3 SFRSYM    DATA     BIT       PT1
      000000D0H.3 SFRSYM    DATA     BIT       RS0
      000000BDH   SFRSYM    DATA     BYTE      ADCDH
      000000B8H.5 SFRSYM    DATA     BIT       PT2
      00000088H.4 SFRSYM    DATA     BIT       TR0
      000000D0H.4 SFRSYM    DATA     BIT       RS1
      000000DDH   SFRSYM    DATA     BYTE      PWMCON
      00000088H.6 SFRSYM    DATA     BIT       TR1
      000000ADH   SFRSYM    DATA     BYTE      WDVTHH
      000000C8H.6 SFRSYM    DATA     BIT       TR2
      000000B8H.0 SFRSYM    DATA     BIT       PX0
      000000B8H.2 SFRSYM    DATA     BIT       PX1
      000000BCH   SFRSYM    DATA     BYTE      ADCDL
      000000ACH   SFRSYM    DATA     BYTE      WDVTHL
      000000DBH   SFRSYM    DATA     BYTE      PWMUPD
      0000009BH   SFRSYM    DATA     BYTE      S1BUF
      000000A2H   SFRSYM    DATA     BYTE      S2BUF
      0000009AH   SFRSYM    DATA     BYTE      S1CON
      000000B9H   SFRSYM    DATA     BYTE      ADCON
      000000A1H   SFRSYM    DATA     BYTE      S2CON
      000000D0H.1 SFRSYM    DATA     BIT       DPS
      000000C9H   SFRSYM    DATA     BYTE      T2MOD
      000000C8H   SFRSYM    DATA     BYTE      T2CON
      000000FFH   SFRSYM    DATA     BYTE      STPSTH
      000000FEH   SFRSYM    DATA     BYTE      STPSTL
      000000D0H.5 SFRSYM    DATA     BIT       F0
      000000ABH   SFRSYM    DATA     BYTE      WDFLG
      000000FBH   SFRSYM    DATA     BYTE      EPCON
      000000F7H   SFRSYM    DATA     BYTE      INDEX
      000000D0H   SFRSYM    DATA     BYTE      PSW
      000000AAH   SFRSYM    DATA     BYTE      WDCON
      000000A6H   SFRSYM    DATA     BYTE      SPDAT

      010030D7H   BLOCK     CODE     ---       LVL=0
      010030D7H   LINE      CODE     ---       #6
      010030D7H   LINE      CODE     ---       #7
      010030D7H   LINE      CODE     ---       #8
      010030DDH   LINE      CODE     ---       #10
      010030E3H   LINE      CODE     ---       #11
      010030E9H   LINE      CODE     ---       #12
      010030EFH   LINE      CODE     ---       #13
      010030F5H   LINE      CODE     ---       #16
      010030FAH   LINE      CODE     ---       #17
      ---         BLOCKEND  ---      ---       LVL=0

      ---         MODULE    ---      ---       SHT30
      0200018BH   PUBLIC    XDATA    FLOAT     fTemperature
      02000189H   PUBLIC    XDATA    WORD      ucHumidity
      010029E5H   PUBLIC    CODE     ---       _CRC_8
      01001261H   PUBLIC    CODE     ---       Measure_Period_Mode
      01002CB0H   PUBLIC    CODE     ---       SHT30_Init
      00000080H   SFRSYM    DATA     BYTE      P0
      00000090H   SFRSYM    DATA     BYTE      P1
      000000A0H   SFRSYM    DATA     BYTE      P2
      000000B0H   SFRSYM    DATA     BYTE      P3
      000000D0H.6 SFRSYM    DATA     BIT       AC
      000000A5H   SFRSYM    DATA     BYTE      SPCON
      000000A8H.7 SFRSYM    DATA     BIT       EA
      000000C8H.0 SFRSYM    DATA     BIT       T2P0
      000000C8H.1 SFRSYM    DATA     BIT       T2P1
      000000C8H.4 SFRSYM    DATA     BIT       T2R0
      000000DAH   SFRSYM    DATA     BYTE      PWMEN
      00000086H   SFRSYM    DATA     BYTE      PWCON
      000000C8H.5 SFRSYM    DATA     BIT       T2R1
      000000A7H   SFRSYM    DATA     BYTE      SPSTA
LX51 LINKER/LOCATER V4.66.87.0                                                        03/10/2021  11:45:25  PAGE 66


      00000083H   SFRSYM    DATA     BYTE      DP0H
      000000A8H   SFRSYM    DATA     BYTE      IE
      00000085H   SFRSYM    DATA     BYTE      DP1H
      00000082H   SFRSYM    DATA     BYTE      DP0L
      000000CBH   SFRSYM    DATA     BYTE      T2CH
      000000B3H   SFRSYM    DATA     BYTE      I2CADM
      00000084H   SFRSYM    DATA     BYTE      DP1L
      000000C8H.3 SFRSYM    DATA     BIT       T2IE
      000000CAH   SFRSYM    DATA     BYTE      T2CL
      000000B2H   SFRSYM    DATA     BYTE      I2CADR
      000000B8H   SFRSYM    DATA     BYTE      IP
      000000B7H   SFRSYM    DATA     BYTE      I2CFLG
      000000B5H   SFRSYM    DATA     BYTE      I2CDAT
      000000D0H.7 SFRSYM    DATA     BIT       CY
      000000BBH   SFRSYM    DATA     BYTE      ADCFGH
      000000DCH   SFRSYM    DATA     BYTE      PWMCMAX
      000000B1H   SFRSYM    DATA     BYTE      I2CCON
      000000D1H   SFRSYM    DATA     BYTE      PWMDIVH
      000000BAH   SFRSYM    DATA     BYTE      ADCFGL
      00000081H   SFRSYM    DATA     BYTE      SP
      000000F9H   SFRSYM    DATA     BYTE      EPIE
      000000D0H.2 SFRSYM    DATA     BIT       OV
      000000FAH   SFRSYM    DATA     BYTE      EPIF
      000000DFH   SFRSYM    DATA     BYTE      PWMDIVL
      000000B6H   SFRSYM    DATA     BYTE      I2CSTA
      000000E8H   SFRSYM    DATA     BYTE      EXIE
      000000D3H   SFRSYM    DATA     BYTE      PWMDUTH
      0000008FH   SFRSYM    DATA     BYTE      IT0CON
      00000080H.0 SFRSYM    DATA     BIT       P00
      000000D2H   SFRSYM    DATA     BYTE      PWMDUTL
      0000008EH   SFRSYM    DATA     BYTE      IT1CON
      00000090H.0 SFRSYM    DATA     BIT       P10
      00000080H.1 SFRSYM    DATA     BIT       P01
      0000009DH   SFRSYM    DATA     BYTE      S1RELH
      00000087H   SFRSYM    DATA     BYTE      PCON
      000000A0H.0 SFRSYM    DATA     BIT       P20
      00000090H.1 SFRSYM    DATA     BIT       P11
      00000080H.2 SFRSYM    DATA     BIT       P02
      000000E8H.0 SFRSYM    DATA     BIT       INT2EN
      000000A4H   SFRSYM    DATA     BYTE      S2RELH
      000000B0H.0 SFRSYM    DATA     BIT       P30
      00000090H.2 SFRSYM    DATA     BIT       P12
      00000080H.3 SFRSYM    DATA     BIT       P03
      000000E8H.1 SFRSYM    DATA     BIT       INT3EN
      00000090H.3 SFRSYM    DATA     BIT       P13
      00000080H.4 SFRSYM    DATA     BIT       P04
      000000E8H.2 SFRSYM    DATA     BIT       INT4EN
      00000090H.4 SFRSYM    DATA     BIT       P14
      00000080H.5 SFRSYM    DATA     BIT       P05
      000000E8H.3 SFRSYM    DATA     BIT       INT5EN
      0000009CH   SFRSYM    DATA     BYTE      S1RELL
      00000089H   SFRSYM    DATA     BYTE      TMOD
      00000088H   SFRSYM    DATA     BYTE      TCON
      00000090H.5 SFRSYM    DATA     BIT       P15
      00000080H.6 SFRSYM    DATA     BIT       P06
      000000E8H.4 SFRSYM    DATA     BIT       INT6EN
      000000A3H   SFRSYM    DATA     BYTE      S2RELL
      00000090H.6 SFRSYM    DATA     BIT       P16
      00000080H.7 SFRSYM    DATA     BIT       P07
      000000E8H.5 SFRSYM    DATA     BIT       INT7EN
      000000C8H.2 SFRSYM    DATA     BIT       UCKS
      000000F8H   SFRSYM    DATA     BYTE      EXIP
      00000090H.7 SFRSYM    DATA     BIT       P17
      000000E8H.6 SFRSYM    DATA     BIT       INT8EN
      000000E8H.7 SFRSYM    DATA     BIT       INT9EN
LX51 LINKER/LOCATER V4.66.87.0                                                        03/10/2021  11:45:25  PAGE 67


      00000088H.1 SFRSYM    DATA     BIT       IE0
      00000088H.3 SFRSYM    DATA     BIT       IE1
      000000F0H   SFRSYM    DATA     BYTE      B
      000000E7H   SFRSYM    DATA     BYTE      MDUDAT
      000000DEH   SFRSYM    DATA     BYTE      PWMCFG
      000000D4H   SFRSYM    DATA     BYTE      PWMAIF
      000000E0H   SFRSYM    DATA     BYTE      ACC
      000000D5H   SFRSYM    DATA     BYTE      PWMBIF
      000000A8H.4 SFRSYM    DATA     BIT       ES0
      000000EFH   SFRSYM    DATA     BYTE      LVDCON
      000000E6H   SFRSYM    DATA     BYTE      MDUCON
      000000D6H   SFRSYM    DATA     BYTE      PWMCIF
      000000A8H.1 SFRSYM    DATA     BIT       ET0
      000000A8H.6 SFRSYM    DATA     BIT       ES1
      000000D7H   SFRSYM    DATA     BYTE      PWMDIF
      000000A8H.3 SFRSYM    DATA     BIT       ET1
      00000088H.5 SFRSYM    DATA     BIT       TF0
      000000FDH   SFRSYM    DATA     BYTE      IDLSTH
      000000A8H.5 SFRSYM    DATA     BIT       ET2
      00000088H.7 SFRSYM    DATA     BIT       TF1
      000000C8H.7 SFRSYM    DATA     BIT       TF2
      0000008CH   SFRSYM    DATA     BYTE      TH0
      000000A8H.0 SFRSYM    DATA     BIT       EX0
      00000088H.0 SFRSYM    DATA     BIT       IT0
      0000008DH   SFRSYM    DATA     BYTE      TH1
      000000A8H.2 SFRSYM    DATA     BIT       EX1
      00000088H.2 SFRSYM    DATA     BIT       IT1
      000000FCH   SFRSYM    DATA     BYTE      IDLSTL
      000000CDH   SFRSYM    DATA     BYTE      TH2
      000000D0H.0 SFRSYM    DATA     BIT       P
      0000008AH   SFRSYM    DATA     BYTE      TL0
      0000008BH   SFRSYM    DATA     BYTE      TL1
      000000CCH   SFRSYM    DATA     BYTE      TL2
      000000B8H.4 SFRSYM    DATA     BIT       PS0
      000000B8H.1 SFRSYM    DATA     BIT       PT0
      000000B8H.6 SFRSYM    DATA     BIT       PS1
      000000B4H   SFRSYM    DATA     BYTE      I2CCR
      000000B8H.3 SFRSYM    DATA     BIT       PT1
      000000D0H.3 SFRSYM    DATA     BIT       RS0
      000000BDH   SFRSYM    DATA     BYTE      ADCDH
      000000B8H.5 SFRSYM    DATA     BIT       PT2
      00000088H.4 SFRSYM    DATA     BIT       TR0
      000000D0H.4 SFRSYM    DATA     BIT       RS1
      000000DDH   SFRSYM    DATA     BYTE      PWMCON
      00000088H.6 SFRSYM    DATA     BIT       TR1
      000000ADH   SFRSYM    DATA     BYTE      WDVTHH
      000000C8H.6 SFRSYM    DATA     BIT       TR2
      000000B8H.0 SFRSYM    DATA     BIT       PX0
      000000B8H.2 SFRSYM    DATA     BIT       PX1
      000000BCH   SFRSYM    DATA     BYTE      ADCDL
      000000ACH   SFRSYM    DATA     BYTE      WDVTHL
      000000DBH   SFRSYM    DATA     BYTE      PWMUPD
      0000009BH   SFRSYM    DATA     BYTE      S1BUF
      000000A2H   SFRSYM    DATA     BYTE      S2BUF
      0000009AH   SFRSYM    DATA     BYTE      S1CON
      000000B9H   SFRSYM    DATA     BYTE      ADCON
      000000A1H   SFRSYM    DATA     BYTE      S2CON
      000000D0H.1 SFRSYM    DATA     BIT       DPS
      000000C9H   SFRSYM    DATA     BYTE      T2MOD
      000000C8H   SFRSYM    DATA     BYTE      T2CON
      000000FFH   SFRSYM    DATA     BYTE      STPSTH
      000000FEH   SFRSYM    DATA     BYTE      STPSTL
      000000D0H.5 SFRSYM    DATA     BIT       F0
      000000ABH   SFRSYM    DATA     BYTE      WDFLG
      000000FBH   SFRSYM    DATA     BYTE      EPCON
LX51 LINKER/LOCATER V4.66.87.0                                                        03/10/2021  11:45:25  PAGE 68


      000000F7H   SFRSYM    DATA     BYTE      INDEX
      000000D0H   SFRSYM    DATA     BYTE      PSW
      000000AAH   SFRSYM    DATA     BYTE      WDCON
      000000A6H   SFRSYM    DATA     BYTE      SPDAT
      01003D9FH   SYMBOL    CONST    ---       _?ix1000

      01002CB0H   BLOCK     CODE     ---       LVL=0
      01002CB0H   LINE      CODE     ---       #12
      01002CB0H   LINE      CODE     ---       #13
      01002CB0H   LINE      CODE     ---       #15
      01002CB3H   LINE      CODE     ---       #16
      01002CB8H   LINE      CODE     ---       #17
      01002CBBH   LINE      CODE     ---       #18
      01002CC0H   LINE      CODE     ---       #19
      01002CC3H   LINE      CODE     ---       #20
      01002CC8H   LINE      CODE     ---       #21
      01002CCBH   LINE      CODE     ---       #23
      01002CCEH   LINE      CODE     ---       #24
      01002CD3H   LINE      CODE     ---       #25
      01002CD6H   LINE      CODE     ---       #26
      01002CDBH   LINE      CODE     ---       #27
      01002CDEH   LINE      CODE     ---       #28
      01002CE3H   LINE      CODE     ---       #29
      01002CE6H   LINE      CODE     ---       #30
      ---         BLOCKEND  ---      ---       LVL=0

      01001261H   BLOCK     CODE     ---       LVL=0
      01001261H   BLOCK     CODE     NEAR LAB  LVL=1
      020000F5H   SYMBOL    XDATA    ---       temp_array
      020000FBH   SYMBOL    XDATA    WORD      temp_uint
      020000FDH   SYMBOL    XDATA    FLOAT     temp_float
      ---         BLOCKEND  ---      ---       LVL=1
      01001261H   LINE      CODE     ---       #39
      01001261H   LINE      CODE     ---       #40
      01001261H   LINE      CODE     ---       #41
      01001274H   LINE      CODE     ---       #42
      0100127BH   LINE      CODE     ---       #43
      01001283H   LINE      CODE     ---       #48
      01001286H   LINE      CODE     ---       #49
      0100128BH   LINE      CODE     ---       #50
      0100128EH   LINE      CODE     ---       #51
      01001293H   LINE      CODE     ---       #52
      01001296H   LINE      CODE     ---       #53
      0100129BH   LINE      CODE     ---       #54
      0100129EH   LINE      CODE     ---       #56
      010012A1H   LINE      CODE     ---       #57
      010012A6H   LINE      CODE     ---       #58
      010012A9H   LINE      CODE     ---       #59
      010012B3H   LINE      CODE     ---       #60
      010012BDH   LINE      CODE     ---       #61
      010012C7H   LINE      CODE     ---       #62
      010012D1H   LINE      CODE     ---       #63
      010012DBH   LINE      CODE     ---       #64
      010012E5H   LINE      CODE     ---       #65
      010012E8H   LINE      CODE     ---       #72
      010012FAH   LINE      CODE     ---       #73
      010012FAH   LINE      CODE     ---       #75
      01001310H   LINE      CODE     ---       #76
      0100133CH   LINE      CODE     ---       #77
      01001350H   LINE      CODE     ---       #79
      01001350H   LINE      CODE     ---       #82
      01001362H   LINE      CODE     ---       #83
      01001362H   LINE      CODE     ---       #85
      01001378H   LINE      CODE     ---       #86
      0100139AH   LINE      CODE     ---       #87
LX51 LINKER/LOCATER V4.66.87.0                                                        03/10/2021  11:45:25  PAGE 69


      010013AEH   LINE      CODE     ---       #88
      010013C7H   LINE      CODE     ---       #91
      010013C7H   LINE      CODE     ---       #92
      010013EDH   LINE      CODE     ---       #93
      01001403H   LINE      CODE     ---       #98
      ---         BLOCKEND  ---      ---       LVL=0

      010029E5H   BLOCK     CODE     ---       LVL=0
      02000101H   SYMBOL    XDATA    ---       Crc_ptr
      02000104H   SYMBOL    XDATA    BYTE      LEN
      010029F3H   BLOCK     CODE     NEAR LAB  LVL=1
      02000105H   SYMBOL    XDATA    BYTE      CRC_Value
      00000004H   SYMBOL    DATA     BYTE      i
      00000006H   SYMBOL    DATA     BYTE      j
      ---         BLOCKEND  ---      ---       LVL=1
      010029E5H   LINE      CODE     ---       #109
      010029F3H   LINE      CODE     ---       #110
      010029F3H   LINE      CODE     ---       #111
      010029F7H   LINE      CODE     ---       #112
      010029F9H   LINE      CODE     ---       #114
      01002A03H   LINE      CODE     ---       #115
      01002A03H   LINE      CODE     ---       #116
      01002A22H   LINE      CODE     ---       #117
      01002A24H   LINE      CODE     ---       #118
      01002A24H   LINE      CODE     ---       #119
      01002A2BH   LINE      CODE     ---       #120
      01002A32H   LINE      CODE     ---       #122
      01002A39H   LINE      CODE     ---       #123
      01002A3EH   LINE      CODE     ---       #124
      01002A41H   LINE      CODE     ---       #125
      01002A46H   LINE      CODE     ---       #126
      ---         BLOCKEND  ---      ---       LVL=0

      ---         MODULE    ---      ---       ?C_STARTUP
      01000000H   PUBLIC    CODE     ---       ?C_STARTUP
      000000E0H   SYMBOL    DATA     ---       ACC
      000000F0H   SYMBOL    DATA     ---       B
      00000083H   SYMBOL    DATA     ---       DPH
      00000082H   SYMBOL    DATA     ---       DPL
      00000000H   SYMBOL    NUMBER   ---       IBPSTACK
      00000100H   SYMBOL    NUMBER   ---       IBPSTACKTOP
      00000080H   SYMBOL    NUMBER   ---       IDATALEN
      01002550H   SYMBOL    CODE     ---       IDATALOOP
      00000000H   SYMBOL    NUMBER   ---       PBPSTACK
      00000100H   SYMBOL    NUMBER   ---       PBPSTACKTOP
      00000000H   SYMBOL    NUMBER   ---       PDATALEN
      00000000H   SYMBOL    NUMBER   ---       PDATASTART
      00000000H   SYMBOL    NUMBER   ---       PPAGE
      00000000H   SYMBOL    NUMBER   ---       PPAGEENABLE
      000000A0H   SYMBOL    DATA     ---       PPAGE_SFR
      00000081H   SYMBOL    DATA     ---       SP
      0100254DH   SYMBOL    CODE     ---       STARTUP1
      00000000H   SYMBOL    NUMBER   ---       XBPSTACK
      00000000H   SYMBOL    NUMBER   ---       XBPSTACKTOP
      00000000H   SYMBOL    NUMBER   ---       XDATALEN
      00000000H   SYMBOL    NUMBER   ---       XDATASTART
      01000000H   LINE      CODE     ---       #126
      0100254DH   LINE      CODE     ---       #133
      0100254FH   LINE      CODE     ---       #134
      01002550H   LINE      CODE     ---       #135
      01002551H   LINE      CODE     ---       #136
      01002553H   LINE      CODE     ---       #185
      01002556H   LINE      CODE     ---       #196

      ---         MODULE    ---      ---       MCU_API
LX51 LINKER/LOCATER V4.66.87.0                                                        03/10/2021  11:45:25  PAGE 70


      01000003H   PUBLIC    CODE     ---       mcu_get_wifi_work_state
      0100322CH   PUBLIC    CODE     ---       mcu_reset_wifi
      0100303EH   PUBLIC    CODE     ---       wifi_protocol_init
      0100106DH   PUBLIC    CODE     ---       wifi_uart_service
      01002073H   PUBLIC    CODE     ---       _uart_receive_input
      01003261H   PUBLIC    CODE     ---       _mcu_get_dp_download_value
      01003254H   PUBLIC    CODE     ---       _mcu_get_dp_download_enum
      01003247H   PUBLIC    CODE     ---       _mcu_get_dp_download_bool
      01002C73H   PUBLIC    CODE     ---       _mcu_dp_enum_update
      02000114H   PUBLIC    XDATA    BYTE      ?_mcu_dp_value_update?BYTE
      010021C5H   PUBLIC    CODE     ---       _mcu_dp_value_update
      01002C30H   PUBLIC    CODE     ---       _mcu_dp_bool_update
      01001882H   PUBLIC    CODE     ---       _byte_to_int
      02000114H   PUBLIC    XDATA    BYTE      ?_my_memcpy?BYTE
      010015C2H   PUBLIC    CODE     ---       _my_memcpy
      01002762H   PUBLIC    CODE     ---       _my_strlen
      00000007H   SYMBOL    DATA     BYTE      Value_H
      00000005H   SYMBOL    DATA     BYTE      Value_L
      00000007H   SYMBOL    DATA     BYTE      bcd_value

      01002762H   BLOCK     CODE     ---       LVL=0
      0200010DH   SYMBOL    XDATA    ---       str
      0100276DH   BLOCK     CODE     NEAR LAB  LVL=1
      02000110H   SYMBOL    XDATA    DWORD     len
      ---         BLOCKEND  ---      ---       LVL=1
      01002762H   LINE      CODE     ---       #61
      0100276DH   LINE      CODE     ---       #62
      0100276DH   LINE      CODE     ---       #63
      01002775H   LINE      CODE     ---       #64
      01002783H   LINE      CODE     ---       #65
      01002788H   LINE      CODE     ---       #66
      01002788H   LINE      CODE     ---       #68
      010027A7H   LINE      CODE     ---       #69
      010027C6H   LINE      CODE     ---       #70
      010027C8H   LINE      CODE     ---       #72
      010027D6H   LINE      CODE     ---       #73
      ---         BLOCKEND  ---      ---       LVL=0
      00000005H   SYMBOL    DATA     BYTE      ch

      010015C2H   BLOCK     CODE     ---       LVL=0
      02000114H   SYMBOL    XDATA    ---       dest
      02000117H   SYMBOL    XDATA    ---       src
      0200011AH   SYMBOL    XDATA    WORD      count
      010015CDH   BLOCK     CODE     NEAR LAB  LVL=1
      0200011CH   SYMBOL    XDATA    ---       pdest
      0200011FH   SYMBOL    XDATA    ---       psrc
      02000122H   SYMBOL    XDATA    WORD      i
      ---         BLOCKEND  ---      ---       LVL=1
      010015C2H   LINE      CODE     ---       #104
      010015CDH   LINE      CODE     ---       #105
      010015CDH   LINE      CODE     ---       #106
      010015D8H   LINE      CODE     ---       #107
      010015EDH   LINE      CODE     ---       #110
      01001607H   LINE      CODE     ---       #111
      0100160EH   LINE      CODE     ---       #112
      0100160EH   LINE      CODE     ---       #114
      0100166AH   LINE      CODE     ---       #115
      0100168AH   LINE      CODE     ---       #116
      010016B0H   LINE      CODE     ---       #117
      010016C0H   LINE      CODE     ---       #118
      010016C0H   LINE      CODE     ---       #119
      010016DFH   LINE      CODE     ---       #120
      0100170DH   LINE      CODE     ---       #121
      0100171DH   LINE      CODE     ---       #122
      0100171DH   LINE      CODE     ---       #124
LX51 LINKER/LOCATER V4.66.87.0                                                        03/10/2021  11:45:25  PAGE 71


      01001728H   LINE      CODE     ---       #125
      ---         BLOCKEND  ---      ---       LVL=0
      00000001H   SYMBOL    DATA     ---       value

      01001882H   BLOCK     CODE     ---       LVL=0
      02000116H   SYMBOL    XDATA    ---       value
      0100188DH   BLOCK     CODE     NEAR LAB  LVL=1
      02000119H   SYMBOL    XDATA    DWORD     nubmer
      ---         BLOCKEND  ---      ---       LVL=1
      01001882H   LINE      CODE     ---       #184
      0100188DH   LINE      CODE     ---       #185
      0100188DH   LINE      CODE     ---       #186
      01001895H   LINE      CODE     ---       #188
      010018A3H   LINE      CODE     ---       #189
      010018BCH   LINE      CODE     ---       #190
      010018FBH   LINE      CODE     ---       #191
      01001914H   LINE      CODE     ---       #192
      01001953H   LINE      CODE     ---       #193
      0100196CH   LINE      CODE     ---       #194
      010019ABH   LINE      CODE     ---       #196
      010019B9H   LINE      CODE     ---       #197
      ---         BLOCKEND  ---      ---       LVL=0
      00000005H   SYMBOL    DATA     BYTE      dpid
      00000006H   SYMBOL    DATA     WORD      send_len

      01002C30H   BLOCK     CODE     ---       LVL=0
      00000004H   SYMBOL    DATA     BYTE      dpid
      02000110H   SYMBOL    XDATA    BYTE      value
      01002C37H   BLOCK     CODE     NEAR LAB  LVL=1
      00000006H   SYMBOL    DATA     WORD      send_len
      ---         BLOCKEND  ---      ---       LVL=1
      01002C30H   LINE      CODE     ---       #234
      01002C37H   LINE      CODE     ---       #235
      01002C37H   LINE      CODE     ---       #236
      01002C3AH   LINE      CODE     ---       #238
      01002C41H   LINE      CODE     ---       #239
      01002C43H   LINE      CODE     ---       #241
      01002C48H   LINE      CODE     ---       #242
      01002C4DH   LINE      CODE     ---       #244
      01002C52H   LINE      CODE     ---       #245
      01002C57H   LINE      CODE     ---       #247
      01002C5DH   LINE      CODE     ---       #248
      01002C5EH   LINE      CODE     ---       #249
      01002C60H   LINE      CODE     ---       #250
      01002C65H   LINE      CODE     ---       #251
      01002C65H   LINE      CODE     ---       #253
      01002C70H   LINE      CODE     ---       #255
      01002C72H   LINE      CODE     ---       #256
      ---         BLOCKEND  ---      ---       LVL=0

      010021C5H   BLOCK     CODE     ---       LVL=0
      00000005H   SYMBOL    DATA     BYTE      dpid
      02000115H   SYMBOL    XDATA    DWORD     value
      010021C7H   BLOCK     CODE     NEAR LAB  LVL=1
      00000006H   SYMBOL    DATA     WORD      send_len
      ---         BLOCKEND  ---      ---       LVL=1
      010021C5H   LINE      CODE     ---       #265
      010021C7H   LINE      CODE     ---       #266
      010021C7H   LINE      CODE     ---       #267
      010021CAH   LINE      CODE     ---       #269
      010021D1H   LINE      CODE     ---       #270
      010021D3H   LINE      CODE     ---       #272
      010021D6H   LINE      CODE     ---       #273
      010021DBH   LINE      CODE     ---       #275
      010021E0H   LINE      CODE     ---       #276
LX51 LINKER/LOCATER V4.66.87.0                                                        03/10/2021  11:45:25  PAGE 72


      010021E5H   LINE      CODE     ---       #278
      01002205H   LINE      CODE     ---       #279
      01002225H   LINE      CODE     ---       #280
      01002245H   LINE      CODE     ---       #281
      0100225DH   LINE      CODE     ---       #283
      01002268H   LINE      CODE     ---       #285
      0100226AH   LINE      CODE     ---       #286
      ---         BLOCKEND  ---      ---       LVL=0
      00000005H   SYMBOL    DATA     BYTE      dpid
      00000006H   SYMBOL    DATA     WORD      send_len

      01002C73H   BLOCK     CODE     ---       LVL=0
      00000004H   SYMBOL    DATA     BYTE      dpid
      02000110H   SYMBOL    XDATA    BYTE      value
      01002C7AH   BLOCK     CODE     NEAR LAB  LVL=1
      00000006H   SYMBOL    DATA     WORD      send_len
      ---         BLOCKEND  ---      ---       LVL=1
      01002C73H   LINE      CODE     ---       #323
      01002C7AH   LINE      CODE     ---       #324
      01002C7AH   LINE      CODE     ---       #325
      01002C7DH   LINE      CODE     ---       #327
      01002C84H   LINE      CODE     ---       #328
      01002C86H   LINE      CODE     ---       #330
      01002C8BH   LINE      CODE     ---       #331
      01002C90H   LINE      CODE     ---       #333
      01002C95H   LINE      CODE     ---       #334
      01002C9AH   LINE      CODE     ---       #336
      01002CA2H   LINE      CODE     ---       #338
      01002CADH   LINE      CODE     ---       #340
      01002CAFH   LINE      CODE     ---       #341
      ---         BLOCKEND  ---      ---       LVL=0
      00000005H   SYMBOL    DATA     BYTE      dpid

      01003247H   BLOCK     CODE     ---       LVL=0
      00000001H   SYMBOL    DATA     ---       value
      02000110H   SYMBOL    XDATA    WORD      len
      01003247H   LINE      CODE     ---       #574
      0100324FH   LINE      CODE     ---       #575
      0100324FH   LINE      CODE     ---       #576
      01003253H   LINE      CODE     ---       #577
      ---         BLOCKEND  ---      ---       LVL=0

      01003254H   BLOCK     CODE     ---       LVL=0
      00000001H   SYMBOL    DATA     ---       value
      02000110H   SYMBOL    XDATA    WORD      len
      01003254H   LINE      CODE     ---       #586
      0100325CH   LINE      CODE     ---       #587
      0100325CH   LINE      CODE     ---       #588
      01003260H   LINE      CODE     ---       #589
      ---         BLOCKEND  ---      ---       LVL=0

      01003261H   BLOCK     CODE     ---       LVL=0
      00000001H   SYMBOL    DATA     ---       value
      02000114H   SYMBOL    XDATA    WORD      len
      01003261H   LINE      CODE     ---       #598
      01003269H   LINE      CODE     ---       #599
      01003269H   LINE      CODE     ---       #600
      ---         BLOCKEND  ---      ---       LVL=0

      01002073H   BLOCK     CODE     ---       LVL=0
      020000F4H   SYMBOL    XDATA    BYTE      value
      01002073H   LINE      CODE     ---       #609
      01002078H   LINE      CODE     ---       #610
      01002078H   LINE      CODE     ---       #613
      0100209AH   LINE      CODE     ---       #615
LX51 LINKER/LOCATER V4.66.87.0                                                        03/10/2021  11:45:25  PAGE 73


      010020E4H   LINE      CODE     ---       #617
      010020E4H   LINE      CODE     ---       #619
      010020F7H   LINE      CODE     ---       #620
      01002105H   LINE      CODE     ---       #621
      01002105H   LINE      CODE     ---       #623
      0100211EH   LINE      CODE     ---       #624
      0100211EH   LINE      CODE     ---       #625
      ---         BLOCKEND  ---      ---       LVL=0
      00000004H   SYMBOL    DATA     WORD      i

      0100106DH   BLOCK     CODE     ---       LVL=0
      0100106DH   BLOCK     CODE     NEAR LAB  LVL=1
      0200018FH   SYMBOL    XDATA    WORD      rx_in
      020000F5H   SYMBOL    XDATA    WORD      offset
      020000F7H   SYMBOL    XDATA    WORD      rx_value_len
      ---         BLOCKEND  ---      ---       LVL=1
      0100106DH   LINE      CODE     ---       #650
      0100106DH   LINE      CODE     ---       #651
      0100106DH   LINE      CODE     ---       #654
      01001074H   LINE      CODE     ---       #655
      01001078H   LINE      CODE     ---       #657
      01001090H   LINE      CODE     ---       #658
      010010ABH   LINE      CODE     ---       #659
      010010ADH   LINE      CODE     ---       #661
      010010BFH   LINE      CODE     ---       #664
      010010E0H   LINE      CODE     ---       #665
      010010EFH   LINE      CODE     ---       #666
      010010FDH   LINE      CODE     ---       #667
      010010FFH   LINE      CODE     ---       #668
      010010FFH   LINE      CODE     ---       #670
      01001115H   LINE      CODE     ---       #671
      01001123H   LINE      CODE     ---       #672
      01001125H   LINE      CODE     ---       #673
      01001125H   LINE      CODE     ---       #675
      01001132H   LINE      CODE     ---       #676
      01001138H   LINE      CODE     ---       #677
      0100113BH   LINE      CODE     ---       #678
      0100113BH   LINE      CODE     ---       #680
      01001154H   LINE      CODE     ---       #681
      01001171H   LINE      CODE     ---       #682
      0100117EH   LINE      CODE     ---       #683
      01001184H   LINE      CODE     ---       #684
      01001186H   LINE      CODE     ---       #685
      01001186H   LINE      CODE     ---       #687
      010011A2H   LINE      CODE     ---       #688
      010011A2H   LINE      CODE     ---       #689
      010011A2H   LINE      CODE     ---       #692
      010011E8H   LINE      CODE     ---       #695
      010011F6H   LINE      CODE     ---       #696
      010011F9H   LINE      CODE     ---       #697
      010011F9H   LINE      CODE     ---       #699
      010011FCH   LINE      CODE     ---       #700
      01001210H   LINE      CODE     ---       #701
      01001213H   LINE      CODE     ---       #703
      0100122CH   LINE      CODE     ---       #704
      01001234H   LINE      CODE     ---       #705
      01001260H   LINE      CODE     ---       #706
      01001260H   LINE      CODE     ---       #707
      ---         BLOCKEND  ---      ---       LVL=0

      0100303EH   BLOCK     CODE     ---       LVL=0
      0100303EH   LINE      CODE     ---       #715
      0100303EH   LINE      CODE     ---       #716
      0100303EH   LINE      CODE     ---       #718
      0100304CH   LINE      CODE     ---       #719
LX51 LINKER/LOCATER V4.66.87.0                                                        03/10/2021  11:45:25  PAGE 74


      0100305AH   LINE      CODE     ---       #721
      0100305FH   LINE      CODE     ---       #724
      01003065H   LINE      CODE     ---       #726
      ---         BLOCKEND  ---      ---       LVL=0

      0100322CH   BLOCK     CODE     ---       LVL=0
      0100322CH   LINE      CODE     ---       #752
      0100322CH   LINE      CODE     ---       #753
      0100322CH   LINE      CODE     ---       #754
      01003231H   LINE      CODE     ---       #756
      ---         BLOCKEND  ---      ---       LVL=0
      00000005H   SYMBOL    DATA     BYTE      mode
      00000007H   SYMBOL    DATA     BYTE      length

      01000003H   BLOCK     CODE     ---       LVL=0
      01000003H   LINE      CODE     ---       #807
      01000003H   LINE      CODE     ---       #808
      01000003H   LINE      CODE     ---       #809
      01000008H   LINE      CODE     ---       #810
      ---         BLOCKEND  ---      ---       LVL=0

      ---         MODULE    ---      ---       PROTOCOL
      02000133H   PUBLIC    XDATA    ---       download_cmd
      01003276H   PUBLIC    CODE     ---       _wifi_test_result
      01003282H   PUBLIC    CODE     ---       get_download_cmd_total
      02000109H   PUBLIC    XDATA    BYTE      ?_dp_download_handle?BYTE
      01001426H   PUBLIC    CODE     ---       _dp_download_handle
      01001BFCH   PUBLIC    CODE     ---       all_data_update
      0100327FH   PUBLIC    CODE     ---       _uart_transmit_output
      01002EBCH   SYMBOL    CODE     ---       _dp_download_maxhum_set_handle
      010031C5H   SYMBOL    CODE     ---       _dp_download_temp_unit_convert_handle
      01002FE9H   SYMBOL    CODE     ---       _dp_download_temp_set_handle
      01002F93H   SYMBOL    CODE     ---       _dp_download_temp_sensitivity_handle
      01002F3DH   SYMBOL    CODE     ---       _dp_download_temp_periodic_report_handle
      01002E10H   SYMBOL    CODE     ---       _dp_download_temp_sampling_handle
      01002FBEH   SYMBOL    CODE     ---       _dp_download_hum_sensitivity_handle
      01002F68H   SYMBOL    CODE     ---       _dp_download_hum_periodic_report_handle
      01002F12H   SYMBOL    CODE     ---       _dp_download_bright_value_handle
      010031D8H   SYMBOL    CODE     ---       _dp_download_switch_handle
      01002E91H   SYMBOL    CODE     ---       _dp_download_minitemp_set_handle
      01002EE7H   SYMBOL    CODE     ---       _dp_download_minihum_set_handle
      01002E66H   SYMBOL    CODE     ---       _dp_download_maxtemp_set_handle
      01002E3BH   SYMBOL    CODE     ---       _dp_download_humidity_sampling_handle

      0100327FH   BLOCK     CODE     ---       LVL=0
      00000007H   SYMBOL    DATA     BYTE      value
      0100327FH   LINE      CODE     ---       #116
      0100327FH   LINE      CODE     ---       #117
      0100327FH   LINE      CODE     ---       #122
      ---         BLOCKEND  ---      ---       LVL=0

      01001BFCH   BLOCK     CODE     ---       LVL=0
      01001BFCH   LINE      CODE     ---       #149
      01001BFCH   LINE      CODE     ---       #150
      01001BFCH   LINE      CODE     ---       #156
      01001C03H   LINE      CODE     ---       #157
      01001C12H   LINE      CODE     ---       #158
      01001C19H   LINE      CODE     ---       #159
      01001C28H   LINE      CODE     ---       #160
      01001C37H   LINE      CODE     ---       #161
      01001C3EH   LINE      CODE     ---       #162
      01001C45H   LINE      CODE     ---       #163
      01001C54H   LINE      CODE     ---       #164
      01001C63H   LINE      CODE     ---       #165
      01001C72H   LINE      CODE     ---       #166
LX51 LINKER/LOCATER V4.66.87.0                                                        03/10/2021  11:45:25  PAGE 75


      01001C81H   LINE      CODE     ---       #167
      01001C88H   LINE      CODE     ---       #168
      01001C8FH   LINE      CODE     ---       #169
      01001C9EH   LINE      CODE     ---       #170
      01001CADH   LINE      CODE     ---       #171
      01001CBCH   LINE      CODE     ---       #172
      01001CCBH   LINE      CODE     ---       #173
      01001CDAH   LINE      CODE     ---       #174
      01001CE1H   LINE      CODE     ---       #175
      ---         BLOCKEND  ---      ---       LVL=0

      01002E10H   BLOCK     CODE     ---       LVL=0
      00000001H   SYMBOL    DATA     ---       value
      00000004H   SYMBOL    DATA     WORD      length
      01002E10H   BLOCK     CODE     NEAR LAB  LVL=1
      00000007H   SYMBOL    DATA     BYTE      ret
      02000110H   SYMBOL    XDATA    DWORD     temp_sampling
      ---         BLOCKEND  ---      ---       LVL=1
      01002E10H   LINE      CODE     ---       #194
      01002E10H   LINE      CODE     ---       #195
      01002E10H   LINE      CODE     ---       #200
      01002E19H   LINE      CODE     ---       #207
      01002E32H   LINE      CODE     ---       #208
      01002E38H   LINE      CODE     ---       #209
      01002E3AH   LINE      CODE     ---       #211
      01002E3AH   LINE      CODE     ---       #212
      ---         BLOCKEND  ---      ---       LVL=0

      01002E3BH   BLOCK     CODE     ---       LVL=0
      00000001H   SYMBOL    DATA     ---       value
      00000004H   SYMBOL    DATA     WORD      length
      01002E3BH   BLOCK     CODE     NEAR LAB  LVL=1
      00000007H   SYMBOL    DATA     BYTE      ret
      02000110H   SYMBOL    XDATA    DWORD     humidity_sampling
      ---         BLOCKEND  ---      ---       LVL=1
      01002E3BH   LINE      CODE     ---       #221
      01002E3BH   LINE      CODE     ---       #222
      01002E3BH   LINE      CODE     ---       #227
      01002E44H   LINE      CODE     ---       #234
      01002E5DH   LINE      CODE     ---       #235
      01002E63H   LINE      CODE     ---       #236
      01002E65H   LINE      CODE     ---       #238
      01002E65H   LINE      CODE     ---       #239
      ---         BLOCKEND  ---      ---       LVL=0

      010031C5H   BLOCK     CODE     ---       LVL=0
      00000001H   SYMBOL    DATA     ---       value
      00000004H   SYMBOL    DATA     WORD      length
      010031C5H   BLOCK     CODE     NEAR LAB  LVL=1
      00000007H   SYMBOL    DATA     BYTE      ret
      00000007H   SYMBOL    DATA     BYTE      temp_unit_convert
      ---         BLOCKEND  ---      ---       LVL=1
      010031C5H   LINE      CODE     ---       #248
      010031C5H   LINE      CODE     ---       #249
      010031C5H   LINE      CODE     ---       #254
      010031C8H   LINE      CODE     ---       #255
      010031C8H   LINE      CODE     ---       #256
      010031C8H   LINE      CODE     ---       #257
      010031C8H   LINE      CODE     ---       #259
      010031C8H   LINE      CODE     ---       #260
      010031C8H   LINE      CODE     ---       #262
      010031C8H   LINE      CODE     ---       #264
      010031C8H   LINE      CODE     ---       #265
      010031C8H   LINE      CODE     ---       #268
      010031CFH   LINE      CODE     ---       #269
LX51 LINKER/LOCATER V4.66.87.0                                                        03/10/2021  11:45:25  PAGE 76


      010031D5H   LINE      CODE     ---       #270
      010031D7H   LINE      CODE     ---       #272
      010031D7H   LINE      CODE     ---       #273
      ---         BLOCKEND  ---      ---       LVL=0

      01002E66H   BLOCK     CODE     ---       LVL=0
      00000001H   SYMBOL    DATA     ---       value
      00000004H   SYMBOL    DATA     WORD      length
      01002E66H   BLOCK     CODE     NEAR LAB  LVL=1
      00000007H   SYMBOL    DATA     BYTE      ret
      02000110H   SYMBOL    XDATA    DWORD     maxtemp_set
      ---         BLOCKEND  ---      ---       LVL=1
      01002E66H   LINE      CODE     ---       #282
      01002E66H   LINE      CODE     ---       #283
      01002E66H   LINE      CODE     ---       #288
      01002E6FH   LINE      CODE     ---       #295
      01002E88H   LINE      CODE     ---       #296
      01002E8EH   LINE      CODE     ---       #297
      01002E90H   LINE      CODE     ---       #299
      01002E90H   LINE      CODE     ---       #300
      ---         BLOCKEND  ---      ---       LVL=0

      01002E91H   BLOCK     CODE     ---       LVL=0
      00000001H   SYMBOL    DATA     ---       value
      00000004H   SYMBOL    DATA     WORD      length
      01002E91H   BLOCK     CODE     NEAR LAB  LVL=1
      00000007H   SYMBOL    DATA     BYTE      ret
      02000110H   SYMBOL    XDATA    DWORD     minitemp_set
      ---         BLOCKEND  ---      ---       LVL=1
      01002E91H   LINE      CODE     ---       #309
      01002E91H   LINE      CODE     ---       #310
      01002E91H   LINE      CODE     ---       #315
      01002E9AH   LINE      CODE     ---       #322
      01002EB3H   LINE      CODE     ---       #323
      01002EB9H   LINE      CODE     ---       #324
      01002EBBH   LINE      CODE     ---       #326
      01002EBBH   LINE      CODE     ---       #327
      ---         BLOCKEND  ---      ---       LVL=0

      01002EBCH   BLOCK     CODE     ---       LVL=0
      00000001H   SYMBOL    DATA     ---       value
      00000004H   SYMBOL    DATA     WORD      length
      01002EBCH   BLOCK     CODE     NEAR LAB  LVL=1
      00000007H   SYMBOL    DATA     BYTE      ret
      02000110H   SYMBOL    XDATA    DWORD     maxhum_set
      ---         BLOCKEND  ---      ---       LVL=1
      01002EBCH   LINE      CODE     ---       #336
      01002EBCH   LINE      CODE     ---       #337
      01002EBCH   LINE      CODE     ---       #342
      01002EC5H   LINE      CODE     ---       #349
      01002EDEH   LINE      CODE     ---       #350
      01002EE4H   LINE      CODE     ---       #351
      01002EE6H   LINE      CODE     ---       #353
      01002EE6H   LINE      CODE     ---       #354
      ---         BLOCKEND  ---      ---       LVL=0

      01002EE7H   BLOCK     CODE     ---       LVL=0
      00000001H   SYMBOL    DATA     ---       value
      00000004H   SYMBOL    DATA     WORD      length
      01002EE7H   BLOCK     CODE     NEAR LAB  LVL=1
      00000007H   SYMBOL    DATA     BYTE      ret
      02000110H   SYMBOL    XDATA    DWORD     minihum_set
      ---         BLOCKEND  ---      ---       LVL=1
      01002EE7H   LINE      CODE     ---       #363
      01002EE7H   LINE      CODE     ---       #364
LX51 LINKER/LOCATER V4.66.87.0                                                        03/10/2021  11:45:25  PAGE 77


      01002EE7H   LINE      CODE     ---       #369
      01002EF0H   LINE      CODE     ---       #376
      01002F09H   LINE      CODE     ---       #377
      01002F0FH   LINE      CODE     ---       #378
      01002F11H   LINE      CODE     ---       #380
      01002F11H   LINE      CODE     ---       #381
      ---         BLOCKEND  ---      ---       LVL=0

      01002F12H   BLOCK     CODE     ---       LVL=0
      00000001H   SYMBOL    DATA     ---       value
      00000004H   SYMBOL    DATA     WORD      length
      01002F12H   BLOCK     CODE     NEAR LAB  LVL=1
      00000007H   SYMBOL    DATA     BYTE      ret
      02000110H   SYMBOL    XDATA    DWORD     bright_value
      ---         BLOCKEND  ---      ---       LVL=1
      01002F12H   LINE      CODE     ---       #390
      01002F12H   LINE      CODE     ---       #391
      01002F12H   LINE      CODE     ---       #396
      01002F1BH   LINE      CODE     ---       #403
      01002F34H   LINE      CODE     ---       #404
      01002F3AH   LINE      CODE     ---       #405
      01002F3CH   LINE      CODE     ---       #407
      01002F3CH   LINE      CODE     ---       #408
      ---         BLOCKEND  ---      ---       LVL=0

      01002F3DH   BLOCK     CODE     ---       LVL=0
      00000001H   SYMBOL    DATA     ---       value
      00000004H   SYMBOL    DATA     WORD      length
      01002F3DH   BLOCK     CODE     NEAR LAB  LVL=1
      00000007H   SYMBOL    DATA     BYTE      ret
      02000110H   SYMBOL    XDATA    DWORD     temp_periodic_report
      ---         BLOCKEND  ---      ---       LVL=1
      01002F3DH   LINE      CODE     ---       #417
      01002F3DH   LINE      CODE     ---       #418
      01002F3DH   LINE      CODE     ---       #423
      01002F46H   LINE      CODE     ---       #430
      01002F5FH   LINE      CODE     ---       #431
      01002F65H   LINE      CODE     ---       #432
      01002F67H   LINE      CODE     ---       #434
      01002F67H   LINE      CODE     ---       #435
      ---         BLOCKEND  ---      ---       LVL=0

      01002F68H   BLOCK     CODE     ---       LVL=0
      00000001H   SYMBOL    DATA     ---       value
      00000004H   SYMBOL    DATA     WORD      length
      01002F68H   BLOCK     CODE     NEAR LAB  LVL=1
      00000007H   SYMBOL    DATA     BYTE      ret
      02000110H   SYMBOL    XDATA    DWORD     hum_periodic_report
      ---         BLOCKEND  ---      ---       LVL=1
      01002F68H   LINE      CODE     ---       #444
      01002F68H   LINE      CODE     ---       #445
      01002F68H   LINE      CODE     ---       #450
      01002F71H   LINE      CODE     ---       #457
      01002F8AH   LINE      CODE     ---       #458
      01002F90H   LINE      CODE     ---       #459
      01002F92H   LINE      CODE     ---       #461
      01002F92H   LINE      CODE     ---       #462
      ---         BLOCKEND  ---      ---       LVL=0

      01002F93H   BLOCK     CODE     ---       LVL=0
      00000001H   SYMBOL    DATA     ---       value
      00000004H   SYMBOL    DATA     WORD      length
      01002F93H   BLOCK     CODE     NEAR LAB  LVL=1
      00000007H   SYMBOL    DATA     BYTE      ret
      02000110H   SYMBOL    XDATA    DWORD     temp_sensitivity
LX51 LINKER/LOCATER V4.66.87.0                                                        03/10/2021  11:45:25  PAGE 78


      ---         BLOCKEND  ---      ---       LVL=1
      01002F93H   LINE      CODE     ---       #471
      01002F93H   LINE      CODE     ---       #472
      01002F93H   LINE      CODE     ---       #477
      01002F9CH   LINE      CODE     ---       #484
      01002FB5H   LINE      CODE     ---       #485
      01002FBBH   LINE      CODE     ---       #486
      01002FBDH   LINE      CODE     ---       #488
      01002FBDH   LINE      CODE     ---       #489
      ---         BLOCKEND  ---      ---       LVL=0

      01002FBEH   BLOCK     CODE     ---       LVL=0
      00000001H   SYMBOL    DATA     ---       value
      00000004H   SYMBOL    DATA     WORD      length
      01002FBEH   BLOCK     CODE     NEAR LAB  LVL=1
      00000007H   SYMBOL    DATA     BYTE      ret
      02000110H   SYMBOL    XDATA    DWORD     hum_sensitivity
      ---         BLOCKEND  ---      ---       LVL=1
      01002FBEH   LINE      CODE     ---       #498
      01002FBEH   LINE      CODE     ---       #499
      01002FBEH   LINE      CODE     ---       #504
      01002FC7H   LINE      CODE     ---       #511
      01002FE0H   LINE      CODE     ---       #512
      01002FE6H   LINE      CODE     ---       #513
      01002FE8H   LINE      CODE     ---       #515
      01002FE8H   LINE      CODE     ---       #516
      ---         BLOCKEND  ---      ---       LVL=0

      010031D8H   BLOCK     CODE     ---       LVL=0
      00000001H   SYMBOL    DATA     ---       value
      00000004H   SYMBOL    DATA     WORD      length
      010031D8H   BLOCK     CODE     NEAR LAB  LVL=1
      00000007H   SYMBOL    DATA     BYTE      ret
      00000007H   SYMBOL    DATA     BYTE      switch_1
      ---         BLOCKEND  ---      ---       LVL=1
      010031D8H   LINE      CODE     ---       #525
      010031D8H   LINE      CODE     ---       #526
      010031D8H   LINE      CODE     ---       #532
      010031DBH   LINE      CODE     ---       #533
      010031DBH   LINE      CODE     ---       #535
      010031DBH   LINE      CODE     ---       #537
      010031DBH   LINE      CODE     ---       #540
      010031E2H   LINE      CODE     ---       #541
      010031E8H   LINE      CODE     ---       #542
      010031EAH   LINE      CODE     ---       #544
      010031EAH   LINE      CODE     ---       #545
      ---         BLOCKEND  ---      ---       LVL=0

      01002FE9H   BLOCK     CODE     ---       LVL=0
      00000001H   SYMBOL    DATA     ---       value
      00000004H   SYMBOL    DATA     WORD      length
      01002FE9H   BLOCK     CODE     NEAR LAB  LVL=1
      00000007H   SYMBOL    DATA     BYTE      ret
      02000110H   SYMBOL    XDATA    DWORD     temp_set
      ---         BLOCKEND  ---      ---       LVL=1
      01002FE9H   LINE      CODE     ---       #554
      01002FE9H   LINE      CODE     ---       #555
      01002FE9H   LINE      CODE     ---       #560
      01002FF2H   LINE      CODE     ---       #567
      0100300BH   LINE      CODE     ---       #568
      01003011H   LINE      CODE     ---       #569
      01003013H   LINE      CODE     ---       #571
      01003013H   LINE      CODE     ---       #572
      ---         BLOCKEND  ---      ---       LVL=0

LX51 LINKER/LOCATER V4.66.87.0                                                        03/10/2021  11:45:25  PAGE 79


      01001426H   BLOCK     CODE     ---       LVL=0
      00000007H   SYMBOL    DATA     BYTE      dpid
      0200010AH   SYMBOL    XDATA    ---       value
      0200010DH   SYMBOL    XDATA    WORD      length
      01001431H   BLOCK     CODE     NEAR LAB  LVL=1
      0200010FH   SYMBOL    XDATA    BYTE      ret
      ---         BLOCKEND  ---      ---       LVL=1
      01001426H   LINE      CODE     ---       #592
      01001431H   LINE      CODE     ---       #593
      01001431H   LINE      CODE     ---       #600
      0100147DH   LINE      CODE     ---       #601
      0100147DH   LINE      CODE     ---       #603
      01001491H   LINE      CODE     ---       #604
      01001494H   LINE      CODE     ---       #605
      01001494H   LINE      CODE     ---       #607
      010014A8H   LINE      CODE     ---       #608
      010014ABH   LINE      CODE     ---       #609
      010014ABH   LINE      CODE     ---       #611
      010014BFH   LINE      CODE     ---       #612
      010014C2H   LINE      CODE     ---       #613
      010014C2H   LINE      CODE     ---       #615
      010014D6H   LINE      CODE     ---       #616
      010014D9H   LINE      CODE     ---       #617
      010014D9H   LINE      CODE     ---       #619
      010014EDH   LINE      CODE     ---       #620
      010014F0H   LINE      CODE     ---       #621
      010014F0H   LINE      CODE     ---       #623
      01001504H   LINE      CODE     ---       #624
      01001507H   LINE      CODE     ---       #625
      01001507H   LINE      CODE     ---       #627
      0100151BH   LINE      CODE     ---       #628
      0100151EH   LINE      CODE     ---       #629
      0100151EH   LINE      CODE     ---       #631
      01001532H   LINE      CODE     ---       #632
      01001535H   LINE      CODE     ---       #633
      01001535H   LINE      CODE     ---       #635
      01001549H   LINE      CODE     ---       #636
      0100154BH   LINE      CODE     ---       #637
      0100154BH   LINE      CODE     ---       #639
      0100155FH   LINE      CODE     ---       #640
      01001561H   LINE      CODE     ---       #641
      01001561H   LINE      CODE     ---       #643
      01001575H   LINE      CODE     ---       #644
      01001577H   LINE      CODE     ---       #645
      01001577H   LINE      CODE     ---       #647
      0100158BH   LINE      CODE     ---       #648
      0100158DH   LINE      CODE     ---       #649
      0100158DH   LINE      CODE     ---       #651
      010015A1H   LINE      CODE     ---       #652
      010015A3H   LINE      CODE     ---       #653
      010015A3H   LINE      CODE     ---       #655
      010015BCH   LINE      CODE     ---       #656
      010015BCH   LINE      CODE     ---       #659
      010015BCH   LINE      CODE     ---       #660
      010015BCH   LINE      CODE     ---       #661
      010015BCH   LINE      CODE     ---       #662
      010015C1H   LINE      CODE     ---       #663
      ---         BLOCKEND  ---      ---       LVL=0

      01003282H   BLOCK     CODE     ---       LVL=0
      01003282H   LINE      CODE     ---       #671
      01003282H   LINE      CODE     ---       #672
      01003282H   LINE      CODE     ---       #673
      01003284H   LINE      CODE     ---       #674
      ---         BLOCKEND  ---      ---       LVL=0
LX51 LINKER/LOCATER V4.66.87.0                                                        03/10/2021  11:45:25  PAGE 80



      01003276H   BLOCK     CODE     ---       LVL=0
      02000102H   SYMBOL    XDATA    BYTE      result
      02000103H   SYMBOL    XDATA    BYTE      rssi
      01003276H   LINE      CODE     ---       #790
      0100327EH   LINE      CODE     ---       #791
      0100327EH   LINE      CODE     ---       #793
      0100327EH   LINE      CODE     ---       #795
      0100327EH   LINE      CODE     ---       #797
      0100327EH   LINE      CODE     ---       #799
      0100327EH   LINE      CODE     ---       #800
      0100327EH   LINE      CODE     ---       #803
      0100327EH   LINE      CODE     ---       #804
      ---         BLOCKEND  ---      ---       LVL=0

      ---         MODULE    ---      ---       SYSTEM
      020000F3H   PUBLIC    XDATA    BYTE      wifi_work_state
      020000F0H   PUBLIC    XDATA    ---       rx_buf_out
      020000EDH   PUBLIC    XDATA    ---       rx_buf_in
      020000B6H   PUBLIC    XDATA    ---       wifi_uart_tx_buf
      0200009FH   PUBLIC    XDATA    ---       wifi_uart_rx_buf
      0200009EH   PUBLIC    XDATA    BYTE      reset_wifi_flag
      0200007FH   PUBLIC    XDATA    ---       wifi_data_process_buf
      0200007EH   PUBLIC    XDATA    BYTE      stop_update_flag
      0200007DH   PUBLIC    XDATA    BYTE      set_wifimode_flag
      01002982H   PUBLIC    CODE     ---       take_byte_rxbuff
      01002D54H   PUBLIC    CODE     ---       with_data_rxbuff
      01001729H   PUBLIC    CODE     ---       _data_handle
      01002919H   PUBLIC    CODE     ---       _wifi_uart_write_frame
      01002BE6H   PUBLIC    CODE     ---       _get_check_sum
      0200010DH   PUBLIC    XDATA    BYTE      ?_set_wifi_uart_buffer?BYTE
      0100284DH   PUBLIC    CODE     ---       _set_wifi_uart_buffer
      01002DE4H   PUBLIC    CODE     ---       _set_wifi_uart_byte
      01002D88H   SYMBOL    CODE     ---       _get_dowmload_dpid_index
      0100326CH   SYMBOL    CODE     ---       get_mcu_wifi_mode
      01003066H   SYMBOL    CODE     ---       heat_beat_check
      01003D95H   SYMBOL    CONST    ---       _?ix1000
      01002AF2H   SYMBOL    CODE     ---       _wifi_uart_write_data
      010025D9H   SYMBOL    CODE     ---       _data_point_handle
      01001AE3H   SYMBOL    CODE     ---       product_info_update

      01002DE4H   BLOCK     CODE     ---       LVL=0
      02000119H   SYMBOL    XDATA    WORD      dest
      00000005H   SYMBOL    DATA     BYTE      byte
      01002DECH   BLOCK     CODE     NEAR LAB  LVL=1
      00000001H   SYMBOL    DATA     ---       obj
      ---         BLOCKEND  ---      ---       LVL=1
      01002DE4H   LINE      CODE     ---       #34
      01002DECH   LINE      CODE     ---       #35
      01002DECH   LINE      CODE     ---       #36
      01002DF5H   LINE      CODE     ---       #38
      01002DF9H   LINE      CODE     ---       #39
      01002E07H   LINE      CODE     ---       #41
      01002E0FH   LINE      CODE     ---       #42
      ---         BLOCKEND  ---      ---       LVL=0

      01002844H   BLOCK     CODE     VOID      LVL=0
      ---         BLOCKEND  ---      ---       LVL=0

      0100284DH   BLOCK     CODE     ---       LVL=0
      0200010DH   SYMBOL    XDATA    WORD      dest
      0200010FH   SYMBOL    XDATA    ---       src
      02000112H   SYMBOL    XDATA    WORD      len
      00000001H   SYMBOL    DATA     ---       obj
      01002860H   BLOCK     CODE     NEAR LAB  LVL=1
LX51 LINKER/LOCATER V4.66.87.0                                                        03/10/2021  11:45:25  PAGE 81


      00000001H   SYMBOL    DATA     ---       obj
      ---         BLOCKEND  ---      ---       LVL=1
      0100284DH   LINE      CODE     ---       #51
      01002860H   LINE      CODE     ---       #52
      01002860H   LINE      CODE     ---       #53
      01002869H   LINE      CODE     ---       #55
      01002896H   LINE      CODE     ---       #57
      010028AAH   LINE      CODE     ---       #58
      010028AFH   LINE      CODE     ---       #59
      ---         BLOCKEND  ---      ---       LVL=0

      01002BE6H   BLOCK     CODE     ---       LVL=0
      0200011BH   SYMBOL    XDATA    ---       pack
      0200011EH   SYMBOL    XDATA    WORD      pack_len
      01002BF7H   BLOCK     CODE     NEAR LAB  LVL=1
      00000006H   SYMBOL    DATA     WORD      i
      02000120H   SYMBOL    XDATA    BYTE      check_sum
      ---         BLOCKEND  ---      ---       LVL=1
      01002BE6H   LINE      CODE     ---       #67
      01002BF7H   LINE      CODE     ---       #68
      01002BF7H   LINE      CODE     ---       #70
      01002BFAH   LINE      CODE     ---       #72
      01002C09H   LINE      CODE     ---       #73
      01002C23H   LINE      CODE     ---       #74
      01002C2AH   LINE      CODE     ---       #76
      01002C2FH   LINE      CODE     ---       #77
      ---         BLOCKEND  ---      ---       LVL=0

      01002AF2H   BLOCK     CODE     ---       LVL=0
      0200011BH   SYMBOL    XDATA    ---       in
      0200011EH   SYMBOL    XDATA    WORD      len
      01002AF2H   LINE      CODE     ---       #85
      01002B03H   LINE      CODE     ---       #86
      01002B03H   LINE      CODE     ---       #87
      01002B19H   LINE      CODE     ---       #89
      01002B19H   LINE      CODE     ---       #91
      01002B27H   LINE      CODE     ---       #92
      01002B39H   LINE      CODE     ---       #93
      01002B43H   LINE      CODE     ---       #94
      01002B45H   LINE      CODE     ---       #95
      ---         BLOCKEND  ---      ---       LVL=0

      01002919H   BLOCK     CODE     ---       LVL=0
      00000007H   SYMBOL    DATA     BYTE      fr_type
      00000005H   SYMBOL    DATA     BYTE      fr_ver
      02000119H   SYMBOL    XDATA    WORD      len
      01002921H   BLOCK     CODE     NEAR LAB  LVL=1
      00000006H   SYMBOL    DATA     BYTE      check_sum
      ---         BLOCKEND  ---      ---       LVL=1
      01002919H   LINE      CODE     ---       #104
      01002921H   LINE      CODE     ---       #105
      01002921H   LINE      CODE     ---       #106
      01002921H   LINE      CODE     ---       #108
      01002927H   LINE      CODE     ---       #109
      0100292BH   LINE      CODE     ---       #110
      0100292EH   LINE      CODE     ---       #111
      01002931H   LINE      CODE     ---       #112
      0100293EH   LINE      CODE     ---       #113
      01002941H   LINE      CODE     ---       #115
      0100294FH   LINE      CODE     ---       #116
      01002966H   LINE      CODE     ---       #117
      01002979H   LINE      CODE     ---       #119
      ---         BLOCKEND  ---      ---       LVL=0

      01003066H   BLOCK     CODE     ---       LVL=0
LX51 LINKER/LOCATER V4.66.87.0                                                        03/10/2021  11:45:25  PAGE 82


      01003066H   BLOCK     CODE     NEAR LAB  LVL=1
      00000007H   SYMBOL    DATA     BYTE      length
      0200007CH   SYMBOL    XDATA    BYTE      mcu_reset_state
      ---         BLOCKEND  ---      ---       LVL=1
      01003066H   LINE      CODE     ---       #127
      01003066H   LINE      CODE     ---       #128
      01003066H   LINE      CODE     ---       #129
      01003068H   LINE      CODE     ---       #132
      0100306EH   LINE      CODE     ---       #133
      01003073H   LINE      CODE     ---       #134
      01003079H   LINE      CODE     ---       #135
      0100307BH   LINE      CODE     ---       #136
      01003082H   LINE      CODE     ---       #137
      01003082H   LINE      CODE     ---       #139
      ---         BLOCKEND  ---      ---       LVL=0

      01001AE3H   BLOCK     CODE     ---       LVL=0
      01001AE3H   BLOCK     CODE     NEAR LAB  LVL=1
      02000102H   SYMBOL    XDATA    BYTE      length
      02000103H   SYMBOL    XDATA    ---       str
      ---         BLOCKEND  ---      ---       LVL=1
      01001AE3H   LINE      CODE     ---       #147
      01001AE3H   LINE      CODE     ---       #148
      01001AE3H   LINE      CODE     ---       #149
      01001AE8H   LINE      CODE     ---       #150
      01001AFAH   LINE      CODE     ---       #152
      01001B17H   LINE      CODE     ---       #153
      01001B34H   LINE      CODE     ---       #154
      01001B5AH   LINE      CODE     ---       #155
      01001B80H   LINE      CODE     ---       #156
      01001BA6H   LINE      CODE     ---       #157
      01001BCCH   LINE      CODE     ---       #175
      01001BF2H   LINE      CODE     ---       #177
      ---         BLOCKEND  ---      ---       LVL=0

      0100326CH   BLOCK     CODE     ---       LVL=0
      0100326CH   BLOCK     CODE     NEAR LAB  LVL=1
      00000007H   SYMBOL    DATA     BYTE      length
      ---         BLOCKEND  ---      ---       LVL=1
      0100326CH   LINE      CODE     ---       #185
      0100326CH   LINE      CODE     ---       #186
      0100326CH   LINE      CODE     ---       #187
      0100326DH   LINE      CODE     ---       #196
      ---         BLOCKEND  ---      ---       LVL=0

      01002D88H   BLOCK     CODE     ---       LVL=0
      02000109H   SYMBOL    XDATA    BYTE      dpid
      01002D8DH   BLOCK     CODE     NEAR LAB  LVL=1
      00000006H   SYMBOL    DATA     BYTE      index
      00000007H   SYMBOL    DATA     BYTE      total
      ---         BLOCKEND  ---      ---       LVL=1
      01002D88H   LINE      CODE     ---       #204
      01002D8DH   LINE      CODE     ---       #205
      01002D8DH   LINE      CODE     ---       #207
      01002D90H   LINE      CODE     ---       #209
      01002D97H   LINE      CODE     ---       #210
      01002DB1H   LINE      CODE     ---       #211
      01002DB1H   LINE      CODE     ---       #212
      01002DB1H   LINE      CODE     ---       #213
      01002DB4H   LINE      CODE     ---       #215
      01002DB6H   LINE      CODE     ---       #216
      ---         BLOCKEND  ---      ---       LVL=0

      010025D9H   BLOCK     CODE     ---       LVL=0
      02000102H   SYMBOL    XDATA    ---       value
LX51 LINKER/LOCATER V4.66.87.0                                                        03/10/2021  11:45:25  PAGE 83


      010025E4H   BLOCK     CODE     NEAR LAB  LVL=1
      02000105H   SYMBOL    XDATA    BYTE      dp_id
      00000007H   SYMBOL    DATA     BYTE      index
      02000106H   SYMBOL    XDATA    BYTE      dp_type
      00000007H   SYMBOL    DATA     BYTE      ret
      02000107H   SYMBOL    XDATA    WORD      dp_len
      ---         BLOCKEND  ---      ---       LVL=1
      010025D9H   LINE      CODE     ---       #223
      010025E4H   LINE      CODE     ---       #224
      010025E4H   LINE      CODE     ---       #230
      010025ECH   LINE      CODE     ---       #231
      010025F6H   LINE      CODE     ---       #232
      01002603H   LINE      CODE     ---       #233
      01002617H   LINE      CODE     ---       #235
      0100261CH   LINE      CODE     ---       #237
      01002634H   LINE      CODE     ---       #239
      01002637H   LINE      CODE     ---       #240
      01002637H   LINE      CODE     ---       #241
      0100265EH   LINE      CODE     ---       #242
      0100265EH   LINE      CODE     ---       #244
      0100265EH   LINE      CODE     ---       #245
      ---         BLOCKEND  ---      ---       LVL=0

      01001729H   BLOCK     CODE     ---       LVL=0
      020000F9H   SYMBOL    XDATA    WORD      offset
      01001731H   BLOCK     CODE     NEAR LAB  LVL=1
      020000FBH   SYMBOL    XDATA    WORD      dp_len
      020000FDH   SYMBOL    XDATA    BYTE      ret
      020000FEH   SYMBOL    XDATA    WORD      i
      02000100H   SYMBOL    XDATA    WORD      total_len
      00000007H   SYMBOL    DATA     BYTE      cmd_type
      00000005H   SYMBOL    DATA     BYTE      result
      00000006H   SYMBOL    DATA     BYTE      rssi
      ---         BLOCKEND  ---      ---       LVL=1
      01001729H   LINE      CODE     ---       #391
      01001731H   LINE      CODE     ---       #392
      01001731H   LINE      CODE     ---       #406
      01001743H   LINE      CODE     ---       #424
      01001765H   LINE      CODE     ---       #425
      01001765H   LINE      CODE     ---       #426
      01001765H   LINE      CODE     ---       #427
      01001768H   LINE      CODE     ---       #428
      01001768H   LINE      CODE     ---       #430
      01001768H   LINE      CODE     ---       #431
      0100176BH   LINE      CODE     ---       #432
      0100176BH   LINE      CODE     ---       #434
      0100176BH   LINE      CODE     ---       #435
      0100176EH   LINE      CODE     ---       #436
      0100176EH   LINE      CODE     ---       #439
      0100176EH   LINE      CODE     ---       #440
      01001783H   LINE      CODE     ---       #441
      0100178DH   LINE      CODE     ---       #448
      0100178DH   LINE      CODE     ---       #450
      0100178DH   LINE      CODE     ---       #451
      01001790H   LINE      CODE     ---       #452
      01001792H   LINE      CODE     ---       #454
      01001792H   LINE      CODE     ---       #455
      01001798H   LINE      CODE     ---       #456
      01001799H   LINE      CODE     ---       #459
      01001799H   LINE      CODE     ---       #460
      010017C2H   LINE      CODE     ---       #462
      010017E1H   LINE      CODE     ---       #463
      01001805H   LINE      CODE     ---       #464
      0100181EH   LINE      CODE     ---       #466
      0100183CH   LINE      CODE     ---       #468
LX51 LINKER/LOCATER V4.66.87.0                                                        03/10/2021  11:45:25  PAGE 84


      0100183CH   LINE      CODE     ---       #470
      0100183CH   LINE      CODE     ---       #472
      0100183CH   LINE      CODE     ---       #474
      01001856H   LINE      CODE     ---       #475
      01001859H   LINE      CODE     ---       #476
      01001859H   LINE      CODE     ---       #478
      01001859H   LINE      CODE     ---       #479
      0100185CH   LINE      CODE     ---       #480
      0100185CH   LINE      CODE     ---       #557
      0100185CH   LINE      CODE     ---       #558
      0100186FH   LINE      CODE     ---       #559
      0100187BH   LINE      CODE     ---       #560
      01001881H   LINE      CODE     ---       #561
      01001881H   LINE      CODE     ---       #725
      01001881H   LINE      CODE     ---       #726
      01001881H   LINE      CODE     ---       #727
      ---         BLOCKEND  ---      ---       LVL=0

      01002D54H   BLOCK     CODE     ---       LVL=0
      01002D54H   LINE      CODE     ---       #734
      01002D54H   LINE      CODE     ---       #735
      01002D54H   LINE      CODE     ---       #736
      01002D85H   LINE      CODE     ---       #737
      01002D87H   LINE      CODE     ---       #739
      01002D87H   LINE      CODE     ---       #740
      ---         BLOCKEND  ---      ---       LVL=0

      01002982H   BLOCK     CODE     ---       LVL=0
      01002982H   BLOCK     CODE     NEAR LAB  LVL=1
      00000007H   SYMBOL    DATA     BYTE      value
      ---         BLOCKEND  ---      ---       LVL=1
      01002982H   LINE      CODE     ---       #747
      01002982H   LINE      CODE     ---       #748
      01002982H   LINE      CODE     ---       #751
      010029AFH   LINE      CODE     ---       #753
      010029C2H   LINE      CODE     ---       #755
      010029D0H   LINE      CODE     ---       #756
      010029D0H   LINE      CODE     ---       #758
      010029E4H   LINE      CODE     ---       #759
      010029E4H   LINE      CODE     ---       #761
      010029E4H   LINE      CODE     ---       #762
      ---         BLOCKEND  ---      ---       LVL=0

      ---         MODULE    ---      ---       ?C?FPADD
      01000055H   PUBLIC    CODE     ---       ?C?FPADD
      01000051H   PUBLIC    CODE     ---       ?C?FPSUB

      ---         MODULE    ---      ---       ?C?FPMUL
      01000146H   PUBLIC    CODE     ---       ?C?FPMUL

      ---         MODULE    ---      ---       ?C?FPDIV
      0100024FH   PUBLIC    CODE     ---       ?C?FPDIV

      ---         MODULE    ---      ---       ?C?FPCMP
      010002EEH   PUBLIC    CODE     ---       ?C?FPCMP
      010002ECH   PUBLIC    CODE     ---       ?C?FPCMP3

      ---         MODULE    ---      ---       ?C?FPNEG
      01000365H   PUBLIC    CODE     ---       ?C?FPNEG

      ---         MODULE    ---      ---       ?C?FCAST
      01000380H   PUBLIC    CODE     ---       ?C?FCASTC
      0100037BH   PUBLIC    CODE     ---       ?C?FCASTI
      01000376H   PUBLIC    CODE     ---       ?C?FCASTL

LX51 LINKER/LOCATER V4.66.87.0                                                        03/10/2021  11:45:25  PAGE 85


      ---         MODULE    ---      ---       ?C?CASTF
      010003B4H   PUBLIC    CODE     ---       ?C?CASTF

      ---         MODULE    ---      ---       VSPRINTF

      ---         MODULE    ---      ---       ?C?FPGETOPN
      010003EBH   PUBLIC    CODE     ---       ?C?FPGETOPN2
      01000420H   PUBLIC    CODE     ---       ?C?FPNANRESULT
      0100042AH   PUBLIC    CODE     ---       ?C?FPOVERFLOW
      01000402H   PUBLIC    CODE     ---       ?C?FPRESULT
      01000416H   PUBLIC    CODE     ---       ?C?FPRESULT2
      01000427H   PUBLIC    CODE     ---       ?C?FPUNDERFLOW

      ---         MODULE    ---      ---       PRINTF

      ---         MODULE    ---      ---       ?C?FPROUND
      01000435H   PUBLIC    CODE     ---       ?C?FPROUND

      ---         MODULE    ---      ---       ?C?FPCONVERT
      01000472H   PUBLIC    CODE     ---       ?C?FPCONVERT

      ---         MODULE    ---      ---       ?C?FTNPWR
      010005A7H   PUBLIC    CODE     ---       ?C?FTNPWR

      ---         MODULE    ---      ---       ?C_INIT
      01002594H   PUBLIC    CODE     ---       ?C_START

      ---         MODULE    ---      ---       ?C?COPY
      010006B7H   PUBLIC    CODE     ---       ?C?COPY

      ---         MODULE    ---      ---       ?C?CLDPTR
      010006DDH   PUBLIC    CODE     ---       ?C?CLDPTR

      ---         MODULE    ---      ---       ?C?CLDOPTR
      010006F6H   PUBLIC    CODE     ---       ?C?CLDOPTR

      ---         MODULE    ---      ---       ?C?CSTPTR
      01000723H   PUBLIC    CODE     ---       ?C?CSTPTR

      ---         MODULE    ---      ---       ?C?CSTOPTR
      01000735H   PUBLIC    CODE     ---       ?C?CSTOPTR

      ---         MODULE    ---      ---       ?C?SIDIV
      01000757H   PUBLIC    CODE     ---       ?C?SIDIV

      ---         MODULE    ---      ---       ?C?IILDX
      0100078DH   PUBLIC    CODE     ---       ?C?IILDX

      ---         MODULE    ---      ---       ?C?ILDIX
      010007A3H   PUBLIC    CODE     ---       ?C?ILDIX

      ---         MODULE    ---      ---       ?C?ULDIV
      010007F5H   PUBLIC    CODE     ---       ?C?ULDIV

      ---         MODULE    ---      ---       ?C?LNEG
      01000887H   PUBLIC    CODE     ---       ?C?LNEG

      ---         MODULE    ---      ---       ?C?ULCMP
      01000895H   PUBLIC    CODE     ---       ?C?ULCMP

      ---         MODULE    ---      ---       ?C?ULSHR
      010008A6H   PUBLIC    CODE     ---       ?C?ULSHR

      ---         MODULE    ---      ---       ?C?LSHL
      010008B9H   PUBLIC    CODE     ---       ?C?LSHL
LX51 LINKER/LOCATER V4.66.87.0                                                        03/10/2021  11:45:25  PAGE 86



      ---         MODULE    ---      ---       ?C?LLDCODE
      010008CCH   PUBLIC    CODE     ---       ?C?LLDCODE

      ---         MODULE    ---      ---       ?C?LSTXDATA
      010008DCH   PUBLIC    CODE     ---       ?C?LSTXDATA

      ---         MODULE    ---      ---       ?C?LSTKXDATA
      010008E8H   PUBLIC    CODE     ---       ?C?LSTKXDATA

      ---         MODULE    ---      ---       ?C?PLDIXDATA
      01000919H   PUBLIC    CODE     ---       ?C?PLDIXDATA

      ---         MODULE    ---      ---       ?C?PSTXDATA
      01000930H   PUBLIC    CODE     ---       ?C?PSTXDATA

      ---         MODULE    ---      ---       ?C?CCASE
      01000939H   PUBLIC    CODE     ---       ?C?CCASE

      ---         MODULE    ---      ---       PUTCHAR

      ---         MODULE    ---      ---       ?C?UIDIV
      0100095FH   PUBLIC    CODE     ---       ?C?UIDIV

Program Size: data=9.7 xdata=505 const=2848 code=12932
LX51 RUN COMPLETE.  0 WARNING(S),  0 ERROR(S)
